(dp1
S'training'
p2
(lp3
F0.030876505209942156
aF0.03079742976685558
aF0.030711352289970129
aF0.030610355485221008
aF0.030489036453076813
aF0.030338898969869091
aF0.030145743841086769
aF0.029883967744828231
aF0.029502873164337234
aF0.028891292225041328
aF0.027799722281359865
aF0.025976782625337792
aF0.0244631279068406
aF0.023929927738172305
aF0.023619988131288374
aF0.023296363407306359
aF0.022943728016721864
aF0.022570203182425044
aF0.022183284615114984
aF0.021792270633441573
aF0.021406934565045974
aF0.021035926115959235
aF0.020685668837272402
aF0.020360097951710936
aF0.020061020607722722
aF0.019788699780432645
aF0.019549122774445246
aF0.019377846253256385
aF0.019242342690998317
aF0.019126980347692574
aF0.019024110831821286
aF0.018929910505096202
aF0.01884240147278422
aF0.018760500772194062
asS'i'
(lp4
(i__main__
Neuron
p5
(dp6
S'activation'
p7
F0.044620138464782744
sS'delta'
p8
F0
sS'bias'
p9
F1
sS'S'
F0
sS'n'
I0
sba(i__main__
Neuron
p10
(dp11
g7
F0.00024678740740889139
sg8
F0
sg9
F1
sS'S'
F0
sS'n'
I1
sba(i__main__
Neuron
p12
(dp13
g7
F0.00035526954238568998
sg8
F0
sg9
F1
sS'S'
F0
sS'n'
I2
sba(i__main__
Neuron
p14
(dp15
g7
F1.5951031693452621e-05
sg8
F0
sg9
F1
sS'S'
F0
sS'n'
I3
sba(i__main__
Neuron
p16
(dp17
g7
F0.010593790762303964
sg8
F0
sg9
F1
sS'S'
F0
sS'n'
I4
sba(i__main__
Neuron
p18
(dp19
g7
F0.00013868325896511293
sg8
F0
sg9
F1
sS'S'
F0
sS'n'
I5
sba(i__main__
Neuron
p20
(dp21
g7
F0.014929296296045703
sg8
F0
sg9
F1
sS'S'
F0
sS'n'
I6
sba(i__main__
Neuron
p22
(dp23
g7
F0.39915260711108336
sg8
F0
sg9
F1
sS'S'
F0
sS'n'
I7
sbasS'k'
(lp24
(i__main__
Neuron
p25
(dp26
g7
F0.022973133375518175
sg8
F-0.00033406571853423437
sg9
F1
sS'S'
F-3.7501887317243598
sS'n'
I14
sbasS'j'
(lp27
(i__main__
Neuron
p28
(dp29
g7
F0.79538774808958912
sg8
F-6.4864942060583326e-06
sg9
F1
sS'S'
F1.3577129952123317
sS'n'
I8
sba(i__main__
Neuron
p30
(dp31
g7
F0.79298827427935104
sg8
F2.7007762298510936e-05
sg9
F1
sS'S'
F1.3430329973380331
sS'n'
I9
sba(i__main__
Neuron
p32
(dp33
g7
F0.78629342811136349
sg8
F1.6822707679334379e-05
sg9
F1
sS'S'
F1.3027261262474161
sS'n'
I10
sba(i__main__
Neuron
p34
(dp35
g7
F0.71461480142901124
sg8
F0.00012551018479032408
sg9
F1
sS'S'
F0.91790381661368636
sS'n'
I11
sba(i__main__
Neuron
p36
(dp37
g7
F0.43115036493111769
sg8
F0.00038241603055937042
sg9
F1
sS'S'
F-0.27715923364985584
sS'n'
I12
sba(i__main__
Neuron
p38
(dp39
g7
F0.75617160750314738
sg8
F7.2389508922356434e-05
sg9
F1
sS'S'
F1.1318036760560977
sS'n'
I13
sbasS'weights'
p40
(lp41
(lp42
F0
aF0
aF0
aF0
aF0
aF0
aF0
aF0
aF0.74193578301912311
aF0.5737077612085878
aF0.81732468936019909
aF0.073553451034071571
aF-5.2035373954727566
aF0.16237501802865181
aF0
aa(lp43
F0
aF0
aF0
aF0
aF0
aF0
aF0
aF0
aF0.66384773538343866
aF0.75201067025972901
aF0.7805048264526836
aF1.051164697278608
aF0.90477576532476833
aF0.92326918944622649
aF0
aa(lp44
F0
aF0
aF0
aF0
aF0
aF0
aF0
aF0
aF1.0070994856669768
aF1.0722782257440699
aF0.65343638070510313
aF0.68142644381294459
aF0.87326454559057576
aF0.71585234015317645
aF0
aa(lp45
F0
aF0
aF0
aF0
aF0
aF0
aF0
aF0
aF0.73068970499273533
aF0.71798657248540243
aF1.0744144426991675
aF1.0994520412758029
aF0.75109854146631516
aF1.1046473648656541
aF0
aa(lp46
F0
aF0
aF0
aF0
aF0
aF0
aF0
aF0
aF1.1521488740516981
aF0.685169402872565
aF1.0877105509865681
aF0.72595376225201147
aF0.36290205261255759
aF0.70295097501086479
aF0
aa(lp47
F0
aF0
aF0
aF0
aF0
aF0
aF0
aF0
aF0.70910235694115442
aF0.83782318227047303
aF0.81371849157243936
aF0.65690676335486198
aF0.83151522692038116
aF0.69170228009303003
aF0
aa(lp48
F0
aF0
aF0
aF0
aF0
aF0
aF0
aF0
aF1.1181396541349342
aF0.76208738489269434
aF0.98419155030697547
aF0.86472921698975502
aF0.68592794299129856
aF0.6513901766314707
aF0
aa(lp49
F0
aF0
aF0
aF0
aF0
aF0
aF0
aF0
aF0.73926312184736442
aF0.74682741756522275
aF0.59997710782967828
aF-0.26710975638980666
aF-2.6550917298335763
aF0.26750332706855651
aF0
aa(lp50
F0
aF0
aF0
aF0
aF0
aF0
aF0
aF0
aF0
aF0
aF0
aF0
aF0
aF0
aF0.11930745764725591
aa(lp51
F0
aF0
aF0
aF0
aF0
aF0
aF0
aF0
aF0
aF0
aF0
aF0
aF0
aF0
aF-0.49248723713168369
aa(lp52
F0
aF0
aF0
aF0
aF0
aF0
aF0
aF0
aF0
aF0
aF0
aF0
aF0
aF0
aF-0.29968255573917152
aa(lp53
F0
aF0
aF0
aF0
aF0
aF0
aF0
aF0
aF0
aF0
aF0
aF0
aF0
aF0
aF-1.8422289628708182
aa(lp54
F0
aF0
aF0
aF0
aF0
aF0
aF0
aF0
aF0
aF0
aF0
aF0
aF0
aF0
aF-4.6674313218616543
aa(lp55
F0
aF0
aF0
aF0
aF0
aF0
aF0
aF0
aF0
aF0
aF0
aF0
aF0
aF0
aF-1.1752738612944245
aa(lp56
F0
aF0
aF0
aF0
aF0
aF0
aF0
aF0
aF0
aF0
aF0
aF0
aF0
aF0
aF0
aasS'learning'
p57
(lp58
F0.5
aF0.25
aF0.27500000000000002
aF0.30250000000000005
aF0.3327500000000001
aF0.36602500000000016
aF0.40262750000000019
aF0.44289025000000026
aF0.48717927500000036
aF0.53589720250000039
aF0.58948692275000047
aF0.64843561502500058
aF0.71327917652750072
aF0.78460709418025087
aF0.86306780359827606
aF0.90000000000000002
aF0.90000000000000002
aF0.90000000000000002
aF0.90000000000000002
aF0.90000000000000002
aF0.90000000000000002
aF0.90000000000000002
aF0.90000000000000002
aF0.90000000000000002
aF0.90000000000000002
aF0.90000000000000002
aF0.45000000000000001
aF0.22500000000000001
aF0.1125
aF0.056250000000000001
aF0.028125000000000001
aF0.0140625
aF0.0070312500000000002
aF0.0035156250000000001
asS'validation'
p59
(lp60
F0.042006459367311975
aF0.041946287238853436
aF0.041820227430261078
aF0.04167178893426874
aF0.041492874466940541
aF0.041270673962345489
aF0.040983672889979492
aF0.040592793485282191
aF0.040019819140994659
aF0.039090544128244094
aF0.037406939941279631
aF0.03457666488841802
aF0.032223593403379103
aF0.031199640447592259
aF0.030376167586218639
aF0.02948558539063624
aF0.028549260904111928
aF0.027613197249645758
aF0.0267461128393029
aF0.026015185345374458
aF0.025462789453650818
aF0.025093327058143405
aF0.02487946157669655
aF0.024779642672903307
aF0.024753620432444459
aF0.024770072541663593
aF0.024776616170823867
aF0.024813438996274136
aF0.024858484912216969
aF0.024903977831611253
aF0.024947717383028072
aF0.024989281275150693
aF0.025028706519059505
aF0.025066105512647419
asS'changes'
p61
(lp62
(lp63
F1
aF1
aF1
aF1
aF1
aF1
aF1
aF1
aF-2.8219256288470044e-07
aF1.1749628410489096e-06
aF7.3186575735435244e-07
aF5.4602747784826121e-06
aF1.6636869828843906e-05
aF3.149279163725341e-06
aF1
aa(lp64
F1
aF1
aF1
aF1
aF1
aF1
aF1
aF1
aF-1.5607654610787829e-09
aF6.4985462466259875e-09
aF4.0478416034360645e-09
aF3.0199974780119579e-08
aF9.2016074215012748e-08
aF1.7418198749787375e-08
aF1
aa(lp65
F1
aF1
aF1
aF1
aF1
aF1
aF1
aF1
aF-2.2468424825669292e-09
aF9.3551594688371347e-09
aF5.8271807674522242e-09
aF4.3475197267321782e-08
aF1.3246424897333508e-07
aF2.5074843015661134e-08
aF1
aa(lp66
F1
aF1
aF1
aF1
aF1
aF1
aF1
aF1
aF-1.0087961779372742e-10
aF4.2003163058296321e-10
aF2.6163105477868271e-10
aF1.9519665120555159e-09
aF5.9474319679484418e-09
aF1.1258201673166295e-09
aF1
aa(lp67
F1
aF1
aF1
aF1
aF1
aF1
aF1
aF1
aF-6.6998648339881973e-08
aF2.7896171817975478e-07
aF1.7376083908001567e-07
aF1.2963879203016286e-06
aF3.9499545265993883e-06
aF7.4770732813664543e-07
aF1
aa(lp68
F1
aF1
aF1
aF1
aF1
aF1
aF1
aF1
aF-8.7707895186062999e-10
aF3.6518863805897904e-09
aF2.2747022274478354e-09
aF1.69710074235348e-08
aF5.1708833863513819e-08
aF9.7882326869305987e-09
aF1
aa(lp69
F1
aF1
aF1
aF1
aF1
aF1
aF1
aF1
aF-9.4417824076707875e-08
aF3.9312671350645107e-07
aF2.4487240776038274e-07
aF1.8269342684835421e-06
aF5.5664721728640467e-06
aF1.0537063167414257e-06
aF1
aa(lp70
F1
aF1
aF1
aF1
aF1
aF1
aF1
aF1
aF-2.5243735465251421e-06
aF1.0510713265344888e-05
aF6.5469569381521115e-06
aF4.8845274541100409e-05
aF0.00014882629670887333
aF2.8172099683503362e-05
aF1
aa(lp71
F1
aF1
aF1
aF1
aF1
aF1
aF1
aF1
aF1
aF1
aF1
aF1
aF1
aF1
aF-0.00025906898508940333
aa(lp72
F1
aF1
aF1
aF1
aF1
aF1
aF1
aF1
aF1
aF1
aF1
aF1
aF1
aF1
aF-0.00025828744269544508
aa(lp73
F1
aF1
aF1
aF1
aF1
aF1
aF1
aF1
aF1
aF1
aF1
aF1
aF1
aF1
aF-0.00025610683706474974
aa(lp74
F1
aF1
aF1
aF1
aF1
aF1
aF1
aF1
aF1
aF1
aF1
aF1
aF1
aF1
aF-0.00023276009943671731
aa(lp75
F1
aF1
aF1
aF1
aF1
aF1
aF1
aF1
aF1
aF1
aF1
aF1
aF1
aF1
aF-0.00014043174254558592
aa(lp76
F1
aF1
aF1
aF1
aF1
aF1
aF1
aF1
aF1
aF1
aF1
aF1
aF1
aF1
aF-0.00024629573611083282
aa(lp77
F1
aF1
aF1
aF1
aF1
aF1
aF1
aF1
aF1
aF1
aF1
aF1
aF1
aF1
aF1
aas.