(dp1
S'training'
p2
(lp3
F0.031078700204174962
aF0.031001837025683245
aF0.030920321462520967
aF0.030827734757226541
aF0.030720753728833462
aF0.030594544539300779
aF0.030441764186635401
aF0.030250646158878639
aF0.030001023122576666
aF0.029655238541300054
aF0.029135086770449924
aF0.028260005998840741
aF0.026659694324253656
aF0.024685989457239804
aF0.024014730945209568
aF0.023791780865470687
aF0.023576705540236702
aF0.02335248927254641
aF0.023121600719019336
aF0.022886667874800207
aF0.022650247848858149
aF0.022414513644944189
aF0.022180779365287281
aF0.021949208745301815
aF0.021718928969831075
aF0.021488554319579304
aF0.021256892528406929
aF0.021023522983087489
aF0.020795760686229341
aF0.020622992722979228
aF0.020478157107798111
aF0.020347807132202557
aF0.02022535057908742
aF0.020107641637857155
aF0.019993258439277836
aF0.019881632835744355
asS'i'
(lp4
(i__main__
Neuron
p5
(dp6
S'activation'
p7
F0.044620138464782744
sS'delta'
p8
F0
sS'bias'
p9
F1
sS'S'
F0
sS'n'
I0
sba(i__main__
Neuron
p10
(dp11
g7
F0.00024678740740889139
sg8
F0
sg9
F1
sS'S'
F0
sS'n'
I1
sba(i__main__
Neuron
p12
(dp13
g7
F0.00035526954238568998
sg8
F0
sg9
F1
sS'S'
F0
sS'n'
I2
sba(i__main__
Neuron
p14
(dp15
g7
F1.5951031693452621e-05
sg8
F0
sg9
F1
sS'S'
F0
sS'n'
I3
sba(i__main__
Neuron
p16
(dp17
g7
F0.010593790762303964
sg8
F0
sg9
F1
sS'S'
F0
sS'n'
I4
sba(i__main__
Neuron
p18
(dp19
g7
F0.00013868325896511293
sg8
F0
sg9
F1
sS'S'
F0
sS'n'
I5
sba(i__main__
Neuron
p20
(dp21
g7
F0.014929296296045703
sg8
F0
sg9
F1
sS'S'
F0
sS'n'
I6
sba(i__main__
Neuron
p22
(dp23
g7
F0.39915260711108336
sg8
F0
sg9
F1
sS'S'
F0
sS'n'
I7
sbasS'k'
(lp24
(i__main__
Neuron
p25
(dp26
g7
F0.02352913961945732
sg8
F-0.000354730750262921
sg9
F1
sS'S'
F-3.7257052721795318
sS'n'
I14
sbasS'j'
(lp27
(i__main__
Neuron
p28
(dp29
g7
F0.75544728264443095
sg8
F9.3123856129969038e-05
sg9
F1
sS'S'
F1.1278791025968233
sS'n'
I8
sba(i__main__
Neuron
p30
(dp31
g7
F0.71897086075248895
sg8
F0.00015003696125905791
sg9
F1
sS'S'
F0.93936246708738347
sS'n'
I9
sba(i__main__
Neuron
p32
(dp33
g7
F0.83487028757763715
sg8
F-7.2860912029736147e-05
sg9
F1
sS'S'
F1.6205450676145752
sS'n'
I10
sba(i__main__
Neuron
p34
(dp35
g7
F0.69253005144567359
sg8
F0.00018813243420756371
sg9
F1
sS'S'
F0.81197427851711279
sS'n'
I11
sba(i__main__
Neuron
p36
(dp37
g7
F0.48141208877262259
sg8
F0.00034954760690883029
sg9
F1
sS'S'
F-0.074385925700266586
sS'n'
I12
sba(i__main__
Neuron
p38
(dp39
g7
F0.80064847756502722
sg8
F-1.6684814868426125e-05
sg9
F1
sS'S'
F1.3903522854746293
sS'n'
I13
sbasS'weights'
p40
(lp41
(lp42
F0
aF0
aF0
aF0
aF0
aF0
aF0
aF0
aF0.22008474628204891
aF-0.018986150080079898
aF1.8302508706687988
aF-0.055962494219319765
aF-4.2153230073094985
aF0.98360482684169603
aF0
aa(lp43
F0
aF0
aF0
aF0
aF0
aF0
aF0
aF0
aF1.0271268925659089
aF1.0568401558475464
aF0.90955852186142616
aF0.80563525503126276
aF0.87031909206479108
aF0.98616445950439591
aF0
aa(lp44
F0
aF0
aF0
aF0
aF0
aF0
aF0
aF0
aF0.92989817955066745
aF1.0003429803551536
aF0.98273604865871333
aF0.9244167752362149
aF0.66319644981403825
aF1.1328608193072625
aF0
aa(lp45
F0
aF0
aF0
aF0
aF0
aF0
aF0
aF0
aF1.0396495794786118
aF1.1461218388232826
aF0.87493764349611847
aF1.079613074168666
aF0.71410990713691902
aF0.79699679178604332
aF0
aa(lp46
F0
aF0
aF0
aF0
aF0
aF0
aF0
aF0
aF0.65346505849719416
aF0.61548598499041896
aF1.1943067094984938
aF0.79398464281413295
aF0.73184858697550104
aF1.0972382337498143
aF0
aa(lp47
F0
aF0
aF0
aF0
aF0
aF0
aF0
aF0
aF1.0094362462826776
aF0.76479769032962641
aF0.94840300944576839
aF0.99642756303554103
aF1.1430683803467423
aF0.67787991488874211
aF0
aa(lp48
F0
aF0
aF0
aF0
aF0
aF0
aF0
aF0
aF1.0977909660221641
aF0.89648395955674243
aF0.80990992078088364
aF0.65299910780466297
aF0.90331262022830405
aF1.1154728630756201
aF0
aa(lp49
F0
aF0
aF0
aF0
aF0
aF0
aF0
aF0
aF0.2354431196457335
aF-0.20163400149730251
aF1.2863110126787445
aF-0.51216343229649852
aF-2.2754484461581055
aF0.79528149074181109
aF0
aa(lp50
F0
aF0
aF0
aF0
aF0
aF0
aF0
aF0
aF0
aF0
aF0
aF0
aF0
aF0
aF-1.4209717945745366
aa(lp51
F0
aF0
aF0
aF0
aF0
aF0
aF0
aF0
aF0
aF0
aF0
aF0
aF0
aF0
aF-2.0933255770533923
aa(lp52
F0
aF0
aF0
aF0
aF0
aF0
aF0
aF0
aF0
aF0
aF0
aF0
aF0
aF0
aF1.4898808432278945
aa(lp53
F0
aF0
aF0
aF0
aF0
aF0
aF0
aF0
aF0
aF0
aF0
aF0
aF0
aF0
aF-2.4907121445776594
aa(lp54
F0
aF0
aF0
aF0
aF0
aF0
aF0
aF0
aF0
aF0
aF0
aF0
aF0
aF0
aF-3.9470089877269365
aa(lp55
F0
aF0
aF0
aF0
aF0
aF0
aF0
aF0
aF0
aF0
aF0
aF0
aF0
aF0
aF0.29468709385220881
aa(lp56
F0
aF0
aF0
aF0
aF0
aF0
aF0
aF0
aF0
aF0
aF0
aF0
aF0
aF0
aF0
aasS'learning'
p57
(lp58
F0.5
aF0.25
aF0.27500000000000002
aF0.30250000000000005
aF0.3327500000000001
aF0.36602500000000016
aF0.40262750000000019
aF0.44289025000000026
aF0.48717927500000036
aF0.53589720250000039
aF0.58948692275000047
aF0.64843561502500058
aF0.71327917652750072
aF0.78460709418025087
aF0.86306780359827606
aF0.90000000000000002
aF0.90000000000000002
aF0.90000000000000002
aF0.90000000000000002
aF0.90000000000000002
aF0.90000000000000002
aF0.90000000000000002
aF0.90000000000000002
aF0.90000000000000002
aF0.90000000000000002
aF0.90000000000000002
aF0.90000000000000002
aF0.90000000000000002
aF0.45000000000000001
aF0.22500000000000001
aF0.1125
aF0.056250000000000001
aF0.028125000000000001
aF0.0140625
aF0.0070312500000000002
aF0.0035156250000000001
asS'validation'
p59
(lp60
F0.042260893501968391
aF0.042197842206169851
aF0.042074283255827662
aF0.04193367005612357
aF0.041770968991848956
aF0.041578836958611448
aF0.041346142086917406
aF0.041055074491846422
aF0.040675134675191509
aF0.04014935830085594
aF0.039359199702911102
aF0.038029808139837987
aF0.035596846657780561
aF0.032577673856577893
aF0.031322797160629232
aF0.0306514161666742
aF0.029982034120569739
aF0.029290481262988999
aF0.028597910907635943
aF0.027931038278234743
aF0.027321270499164177
aF0.026799912931280638
aF0.026390483076484225
aF0.02610190353236258
aF0.025926452824378037
aF0.025843494147888037
aF0.025826458546651131
aF0.025849447630080499
aF0.025856747412769547
aF0.025889074836309027
aF0.025928711510180457
aF0.025968502701130384
aF0.026005965512123339
aF0.026040330269460402
aF0.026071407743088745
aF0.026099213321806501
asS'changes'
p61
(lp62
(lp63
F1
aF1
aF1
aF1
aF1
aF1
aF1
aF1
aF4.0513193710213831e-06
aF6.5273032365590481e-06
aF-3.1697873838512522e-06
aF8.1846328824566685e-06
aF1.520694105479782e-05
aF-7.2586678094622865e-07
aF1
aa(lp64
F1
aF1
aF1
aF1
aF1
aF1
aF1
aF1
aF2.2407250146677814e-08
aF3.6101551867515402e-08
aF-1.7531626691734245e-08
aF4.5267997795418268e-08
aF8.4107348983137211e-08
aF-4.0146621493643015e-09
aF1
aa(lp65
F1
aF1
aF1
aF1
aF1
aF1
aF1
aF1
aF3.2256968008672809e-08
aF5.1970973503258872e-08
aF-2.5238131302743164e-08
aF6.5166780713606411e-08
aF1.2107902788980034e-07
aF-5.7794163795183128e-09
aF1
aa(lp66
F1
aF1
aF1
aF1
aF1
aF1
aF1
aF1
aF1.4482860410320167e-09
aF2.3334132161267421e-09
aF-1.1331515490751799e-09
aF2.9258837600959579e-09
aF5.4362538322689382e-09
aF-2.5948651049651326e-10
aF1
aa(lp67
F1
aF1
aF1
aF1
aF1
aF1
aF1
aF1
aF9.6187128064929465e-07
aF1.5497236698356062e-06
aF-7.5257642537381897e-07
aF1.9432097525079001e-06
aF3.6104583538298179e-06
aF-1.7233655168328737e-07
aF1
aa(lp68
F1
aF1
aF1
aF1
aF1
aF1
aF1
aF1
aF1.2591851859114855e-08
aF2.0287424383812831e-08
aF-9.8519740131678562e-09
aF2.5438548615621013e-08
aF4.7264491257333486e-08
aF-2.2560568886533344e-09
aF1
aa(lp69
F1
aF1
aF1
aF1
aF1
aF1
aF1
aF1
aF1.3555167993847739e-06
aF2.1839475937449355e-06
aF-1.0605680904897504e-06
aF2.7384677318515168e-06
aF5.0880372982877479e-06
aF-2.4286523119501739e-07
aF1
aa(lp70
F1
aF1
aF1
aF1
aF1
aF1
aF1
aF1
aF3.6241364209551719e-05
aF5.8390453143338135e-05
aF-2.8355557418331466e-05
aF7.3216212806200841e-05
aF0.00013603476764192224
aF-6.4932926700506035e-06
aF1
aa(lp71
F1
aF1
aF1
aF1
aF1
aF1
aF1
aF1
aF1
aF1
aF1
aF1
aF1
aF1
aF-0.00026128087182263033
aa(lp72
F1
aF1
aF1
aF1
aF1
aF1
aF1
aF1
aF1
aF1
aF1
aF1
aF1
aF1
aF-0.00024866504603061077
aa(lp73
F1
aF1
aF1
aF1
aF1
aF1
aF1
aF1
aF1
aF1
aF1
aF1
aF1
aF1
aF-0.00028875030939751997
aa(lp74
F1
aF1
aF1
aF1
aF1
aF1
aF1
aF1
aF1
aF1
aF1
aF1
aF1
aF1
aF-0.00023952016211071947
aa(lp75
F1
aF1
aF1
aF1
aF1
aF1
aF1
aF1
aF1
aF1
aF1
aF1
aF1
aF1
aF-0.00016650237965005354
aa(lp76
F1
aF1
aF1
aF1
aF1
aF1
aF1
aF1
aF1
aF1
aF1
aF1
aF1
aF1
aF-0.00027691426926491989
aa(lp77
F1
aF1
aF1
aF1
aF1
aF1
aF1
aF1
aF1
aF1
aF1
aF1
aF1
aF1
aF1
aas.