(i__main__
NN
p1
(dp2
S'exitCounter'
p3
I9
sS'Network'
p4
(i__main__
Layers
p5
(dp6
S'layers'
p7
(lp8
(i__main__
Layer
p9
(dp10
S'Neurons'
p11
(lp12
(i__main__
Neuron
p13
(dp14
S'activation'
p15
F0.01216455192682986
sS'delta'
p16
F0
sS'bias'
p17
F1
sS'S'
F0
sS'n'
I0
sba(i__main__
Neuron
p18
(dp19
g15
F0.0002165888016246411
sg16
F0
sg17
F1
sS'S'
F0
sS'n'
I1
sba(i__main__
Neuron
p20
(dp21
g15
F0.0002268191953195176
sg16
F0
sg17
F1
sS'S'
F0
sS'n'
I2
sba(i__main__
Neuron
p22
(dp23
g15
F1.1685383020370057e-05
sg16
F0
sg17
F1
sS'S'
F0
sS'n'
I3
sba(i__main__
Neuron
p24
(dp25
g15
F0.0028071518272494811
sg16
F0
sg17
F1
sS'S'
F0
sS'n'
I4
sba(i__main__
Neuron
p26
(dp27
g15
F7.6773421127995477e-05
sg16
F0
sg17
F1
sS'S'
F0
sS'n'
I5
sba(i__main__
Neuron
p28
(dp29
g15
F0.0074562974063655833
sg16
F0
sg17
F1
sS'S'
F0
sS'n'
I6
sba(i__main__
Neuron
p30
(dp31
g15
F0.17505288033665362
sg16
F0
sg17
F1
sS'S'
F0
sS'n'
I7
sbasS'name'
p32
S'Input'
p33
sba(i__main__
Layer
p34
(dp35
g11
(lp36
(i__main__
Neuron
p37
(dp38
g15
F0.74162564825630117
sg16
F9.3123856129969038e-05
sg17
F1
sS'S'
F1.0544350896567438
sS'n'
I8
sba(i__main__
Neuron
p39
(dp40
g15
F0.72579916831327795
sg16
F0.00015003696125905791
sg17
F1
sS'S'
F0.97341254862599946
sS'n'
I9
sba(i__main__
Neuron
p41
(dp42
g15
F0.77856632917160273
sg16
F-7.2860912029736147e-05
sg17
F1
sS'S'
F1.2573310987522737
sS'n'
I10
sba(i__main__
Neuron
p43
(dp44
g15
F0.71447830762608844
sg16
F0.00018813243420756371
sg17
F1
sS'S'
F0.91723463019001072
sS'n'
I11
sba(i__main__
Neuron
p45
(dp46
g15
F0.63636541783607969
sg16
F0.00034954760690883029
sg17
F1
sS'S'
F0.5596234864494205
sS'n'
I12
sba(i__main__
Neuron
p47
(dp48
g15
F0.76189749338009083
sg16
F-1.6684814868426125e-05
sg17
F1
sS'S'
F1.16311074248389
sS'n'
I13
sbasg32
S'Hidden'
p49
sba(i__main__
Layer
p50
(dp51
g11
(lp52
(i__main__
Neuron
p53
(dp54
g15
F0.01120673326062442
sg16
F-0.000354730750262921
sg17
F1
sS'S'
F-4.4799704955062358
sS'n'
I14
sbasg32
S'Output'
p55
sbasS'chosen'
p56
I1
sS'NumNeurons'
p57
I15
sS'weights'
p58
(lp59
(lp60
F0
aF0
aF0
aF0
aF0
aF0
aF0
aF0
aF0.22008474628204891
aF-0.018986150080079898
aF1.8302508706687988
aF-0.055962494219319765
aF-4.2153230073094985
aF0.98360482684169603
aF0
aa(lp61
F0
aF0
aF0
aF0
aF0
aF0
aF0
aF0
aF1.0271268925659089
aF1.0568401558475464
aF0.90955852186142616
aF0.80563525503126276
aF0.87031909206479108
aF0.98616445950439591
aF0
aa(lp62
F0
aF0
aF0
aF0
aF0
aF0
aF0
aF0
aF0.92989817955066745
aF1.0003429803551536
aF0.98273604865871333
aF0.9244167752362149
aF0.66319644981403825
aF1.1328608193072625
aF0
aa(lp63
F0
aF0
aF0
aF0
aF0
aF0
aF0
aF0
aF1.0396495794786118
aF1.1461218388232826
aF0.87493764349611847
aF1.079613074168666
aF0.71410990713691902
aF0.79699679178604332
aF0
aa(lp64
F0
aF0
aF0
aF0
aF0
aF0
aF0
aF0
aF0.65346505849719416
aF0.61548598499041896
aF1.1943067094984938
aF0.79398464281413295
aF0.73184858697550104
aF1.0972382337498143
aF0
aa(lp65
F0
aF0
aF0
aF0
aF0
aF0
aF0
aF0
aF1.0094362462826776
aF0.76479769032962641
aF0.94840300944576839
aF0.99642756303554103
aF1.1430683803467423
aF0.67787991488874211
aF0
aa(lp66
F0
aF0
aF0
aF0
aF0
aF0
aF0
aF0
aF1.0977909660221641
aF0.89648395955674243
aF0.80990992078088364
aF0.65299910780466297
aF0.90331262022830405
aF1.1154728630756201
aF0
aa(lp67
F0
aF0
aF0
aF0
aF0
aF0
aF0
aF0
aF0.2354431196457335
aF-0.20163400149730251
aF1.2863110126787445
aF-0.51216343229649852
aF-2.2754484461581055
aF0.79528149074181109
aF0
aa(lp68
F0
aF0
aF0
aF0
aF0
aF0
aF0
aF0
aF0
aF0
aF0
aF0
aF0
aF0
aF-1.4209717945745366
aa(lp69
F0
aF0
aF0
aF0
aF0
aF0
aF0
aF0
aF0
aF0
aF0
aF0
aF0
aF0
aF-2.0933255770533923
aa(lp70
F0
aF0
aF0
aF0
aF0
aF0
aF0
aF0
aF0
aF0
aF0
aF0
aF0
aF0
aF1.4898808432278945
aa(lp71
F0
aF0
aF0
aF0
aF0
aF0
aF0
aF0
aF0
aF0
aF0
aF0
aF0
aF0
aF-2.4907121445776594
aa(lp72
F0
aF0
aF0
aF0
aF0
aF0
aF0
aF0
aF0
aF0
aF0
aF0
aF0
aF0
aF-3.9470089877269365
aa(lp73
F0
aF0
aF0
aF0
aF0
aF0
aF0
aF0
aF0
aF0
aF0
aF0
aF0
aF0
aF0.29468709385220881
aa(lp74
F0
aF0
aF0
aF0
aF0
aF0
aF0
aF0
aF0
aF0
aF0
aF0
aF0
aF0
aF0
aasS'changes'
p75
(lp76
(lp77
F1
aF1
aF1
aF1
aF1
aF1
aF1
aF1
aF4.0513193710213831e-06
aF6.5273032365590481e-06
aF-3.1697873838512522e-06
aF8.1846328824566685e-06
aF1.520694105479782e-05
aF-7.2586678094622865e-07
aF1
aa(lp78
F1
aF1
aF1
aF1
aF1
aF1
aF1
aF1
aF2.2407250146677814e-08
aF3.6101551867515402e-08
aF-1.7531626691734245e-08
aF4.5267997795418268e-08
aF8.4107348983137211e-08
aF-4.0146621493643015e-09
aF1
aa(lp79
F1
aF1
aF1
aF1
aF1
aF1
aF1
aF1
aF3.2256968008672809e-08
aF5.1970973503258872e-08
aF-2.5238131302743164e-08
aF6.5166780713606411e-08
aF1.2107902788980034e-07
aF-5.7794163795183128e-09
aF1
aa(lp80
F1
aF1
aF1
aF1
aF1
aF1
aF1
aF1
aF1.4482860410320167e-09
aF2.3334132161267421e-09
aF-1.1331515490751799e-09
aF2.9258837600959579e-09
aF5.4362538322689382e-09
aF-2.5948651049651326e-10
aF1
aa(lp81
F1
aF1
aF1
aF1
aF1
aF1
aF1
aF1
aF9.6187128064929465e-07
aF1.5497236698356062e-06
aF-7.5257642537381897e-07
aF1.9432097525079001e-06
aF3.6104583538298179e-06
aF-1.7233655168328737e-07
aF1
aa(lp82
F1
aF1
aF1
aF1
aF1
aF1
aF1
aF1
aF1.2591851859114855e-08
aF2.0287424383812831e-08
aF-9.8519740131678562e-09
aF2.5438548615621013e-08
aF4.7264491257333486e-08
aF-2.2560568886533344e-09
aF1
aa(lp83
F1
aF1
aF1
aF1
aF1
aF1
aF1
aF1
aF1.3555167993847739e-06
aF2.1839475937449355e-06
aF-1.0605680904897504e-06
aF2.7384677318515168e-06
aF5.0880372982877479e-06
aF-2.4286523119501739e-07
aF1
aa(lp84
F1
aF1
aF1
aF1
aF1
aF1
aF1
aF1
aF3.6241364209551719e-05
aF5.8390453143338135e-05
aF-2.8355557418331466e-05
aF7.3216212806200841e-05
aF0.00013603476764192224
aF-6.4932926700506035e-06
aF1
aa(lp85
F1
aF1
aF1
aF1
aF1
aF1
aF1
aF1
aF1
aF1
aF1
aF1
aF1
aF1
aF-0.00026128087182263033
aa(lp86
F1
aF1
aF1
aF1
aF1
aF1
aF1
aF1
aF1
aF1
aF1
aF1
aF1
aF1
aF-0.00024866504603061077
aa(lp87
F1
aF1
aF1
aF1
aF1
aF1
aF1
aF1
aF1
aF1
aF1
aF1
aF1
aF1
aF-0.00028875030939751997
aa(lp88
F1
aF1
aF1
aF1
aF1
aF1
aF1
aF1
aF1
aF1
aF1
aF1
aF1
aF1
aF-0.00023952016211071947
aa(lp89
F1
aF1
aF1
aF1
aF1
aF1
aF1
aF1
aF1
aF1
aF1
aF1
aF1
aF1
aF-0.00016650237965005354
aa(lp90
F1
aF1
aF1
aF1
aF1
aF1
aF1
aF1
aF1
aF1
aF1
aF1
aF1
aF1
aF-0.00027691426926491989
aa(lp91
F1
aF1
aF1
aF1
aF1
aF1
aF1
aF1
aF1
aF1
aF1
aF1
aF1
aF1
aF1
aasS'NumLayers'
p92
I3
sbsS'testDataOutputValues'
p93
(lp94
F0.041608875362136047
aF0.0021776416018914136
aF0.00086678715645457027
aF0.018339390218975214
aF0.045660906962594526
aF0.0045241529023729212
aF0.0086925836488708826
aF0.0022829012132496696
aF0.012853853119782429
aF0.046172881331502567
aF0.20019282246036105
aF0.0034732643551690784
aF0.0018568619240365079
aF0.0067997334732366188
aF0.0029499226548135356
aF0.050693805976309549
aF0.0024411310750550108
aF0.001360005803588672
aF0.011829449697802129
aF0.018860685613249696
aF0.076618078283290841
aF0.019912370085083002
aF0.016320592529852913
aF0.0098352049535475345
aF0.0095260197218801565
aF0.0068017795519755946
aF0.010352635532426177
aF0.071107983692388702
aF0.00074947864208665298
aF0.022242285413570598
aF0.014288041099447226
aF0.022269225450300439
aF0.079641727975332116
aF0.012262195351095405
aF0.0029535600144562284
aF0.013001852815234976
aF0.0085288973497528592
aF0.0089290194142635834
aF0.01450344726756074
aF0.00022500045866265066
aF0.018475909139281287
aF0.023124374056203555
aF0.0073751362830528962
aF0.0069834258755801792
aF0.0013444328709642491
aF0.0033697098094266353
aF0.0011239110513191332
aF0.00043586023981816093
aF0.0018193504804886276
aF0.0027146235998313758
aF0.1264930662824707
aF0.032251247920473562
aF0.011349530562471365
aF0.0034613286685163066
aF0.003084736509503797
aF0.0085066178257062388
aF0.00023000198446903474
aF0.0002322753825559102
aF0.0025026271082653241
aF0.012569334504023809
aF0.018216852836718804
aF0.032635001355072489
aF0.0018246930194181737
aF0.021289381076413382
aF0.00027080988820748662
aF0.0060995198603428493
aF0.029558494628941012
aF0.00080540479428531126
aF0.0063675561751486143
aF0.0033447021803947145
aF0.00073788421863333448
aF0.018879896019187853
aF0.0028435265603868201
aF0.0038168916849337922
aF0.089106660879749749
aF0.013541108233996022
aF0.030210284378345699
aF0.0069612602499166962
aF0.014354083519615542
aF0.02431303076845466
aF0.0037832452841238362
aF0.0006025020314720102
aF0.0014137722060073008
aF0.0027986264991704175
aF0.0026326667792313098
aF0.043197200818786155
aF0.0034919061785598821
aF0.0024302186551138092
aF0.0085034350365567214
aF0.00050508590382015864
aF0.039852771448889969
aF0.010376392780006502
aF0.017046268455942822
aF0.0029209365393447189
aF0.00082018202962235505
aF0.0042396342866142999
aF0.0039183999245951777
aF0.0030360853039326065
aF0.015700403329861289
aF0.0018143489546822431
aF0.014472074060229784
aF0.001055026400440298
aF0.037309950260507888
aF0.025313335929731472
aF0.00042528883300012185
aF0.01838826876662851
aF0.028176026290929617
aF0.013777885012511886
aF0.072090783513343179
aF0.065194365999427503
aF0.0085850508440336246
aF0.072725868166554547
aF0.0007974478214115183
aF0.0059462912970018105
aF0.023878352707463461
aF0.03294725570484832
aF0.0063886989887846921
aF0.062502408405182341
aF0.042176889554283802
aF0.0018370831628930801
aF0.049609838928816853
aF0.031938084202369287
aF0.0005885204479539293
aF0.0023335982702177532
aF0.027827853028891063
aF0.0009775027504413448
aF0.017783084144056039
aF0.020369555012202927
aF0.03123014095868383
aF0.00029365776745937747
aF0.0091572708647003828
aF0.059623802961526202
aF0.10168117878324563
aF0.044053825784170483
aF0.00069969072610492065
aF0.0017161371752114289
aF0.0093000416922644387
aF0.0080876263683805176
aF0.0095203361698274463
aF0.17750817482342399
aF0.0028935418184506609
aF0.0010338835868042198
aF0.011011927570540441
aF0.040216405109222302
aF0.0014653788586459003
aF0.020516986352450202
aF0.0049166590071330176
aF0.015323470157725618
aF0.056653578658780387
aF0.0038188240926317137
aF0.010590662692393638
aF0.03733450320537559
aF0.0025906084940412622
aF0.030667810318588784
aF0.0024806885973418665
aF0.0064964591357040578
aF0.0055966389473770597
aF0.016771866562838023
aF0.041815870327895716
aF0.0024993306480747528
aF0.00073447406466750078
aF0.04556633265643744
aF0.0068523633925867888
aF0.004292832333827659
aF0.012304253636285453
aF0.0034664438653637451
aF0.0071186944144346585
aF0.011005107308077189
aF0.0067199364024165828
aF0.003684919606269885
aF0.0018134395863538099
aF0.0049679246466484538
aF0.008894918101947329
aF0.051004127918387474
aF0.0033158297359669521
aF0.0013969488919312817
aF0.0043417108814809572
aF0.0021280810279917894
aF0.062513775509287758
aF0.078420218968163868
aF0.0043496678543547499
aF0.0016224722373827816
aF0.021090684096650665
aF0.0091879620457850138
aF0.051925204364049522
aF0.0018484502669984981
aF0.0032252339162467678
aF0.049803759451434476
aF0.0025684426410356961
aF0.0032231878375077925
aF0.019408125346966645
aF0.015271977176128071
aF0.0037829040436585912
aF0.011407502793409
aF0.0046265705103627408
aF0.0028023776435252058
aF0.0031977255243116555
aF0.028307885835262881
aF0.040350539211087062
aF0.0009161203882720859
aF0.019145772584213589
aF0.00040562374289774812
aF0.04463923164559952
aF0.046278254386559796
aF0.0010475240435280973
aF0.0080162409545984914
aF0.014699188800256042
aF0.026110169927521298
aF0.031262650876425324
aF0.001067984899120475
aF0.063527721195491077
aF0.013610788582162235
aF0.0031874951306167789
aF0.0017757008007238209
aF0.015142505860367356
aF0.0020910242686081257
aF0.011182774690560716
aF0.053316651577593778
aF0.0052061791486980218
aF0.0011884762026379094
aF0.010000255305158209
aF0.085615823208975775
aF0.0140305761914595
aF0.02554670371372612
aF0.059089435397530483
aF0.0051494572992119838
aF0.023782982704019
aF0.0019894023579056859
aF0.0020278231697819999
aF0.029477901860833596
aF0.0011220923146622662
aF0.056809762669188836
aF0.01137135540235377
aF0.14170588904883416
aF0.0043010166487835594
aF0.080607363469087409
aF0.018860117258044425
aF0.012739727394564028
aF0.0034098356869187618
aF0.0031311142942539042
aF0.0043447797722473381
aF0.0055826571819853135
aF0.00029706789869100294
aF0.00039005081027332502
aF0.0081215003386146643
aF0.00050644995631280885
aF0.091072146850617652
aF0.0075719013098018515
aF0.024396237970506322
aF0.00060079692038778108
aF0.0037177705371345443
aF0.040165139469706866
aF0.043076595844227669
aF0.011209487839892611
aF0.006210235454329624
aF0.019157594372483221
aF0.011514808256164149
aF0.020669646560585973
aF0.011570507066280699
aF0.0012566788272704195
aF0.022928859638248276
aF0.072407930264725986
aF0.046373738061045305
aF0.0083965842579657897
aF0.13902257045370911
aF0.027014991414312597
aF0.0084029498362648228
aF0.0020128185923628476
aF0.01651281139698595
aF0.0034736051409501585
aF0.010334789633664835
aF0.076442224635938374
aF0.030014772461153322
aF0.0015084601832054357
aF0.0052767688651926704
aF0.007130743544786401
aF0.095742776256492981
aF0.027963462580868705
aF0.004973267185578
aF0.015491816969526862
aF0.00045370659326366769
aF0.015944796068127785
aF0.027400563585568388
aF0.068517538884646567
aF0.0023673587967529279
aF0.0053320129911450026
aF0.017825142429246085
aF0.00087019728768619579
aF0.017646678894791018
aF0.0030663218008530196
aF0.013342865938397525
aF0.027178450371348514
aF0.0037074264723986135
aF0.052588929572764898
aF0.027940273688493653
aF0.029854948704010321
aF0.033649401725440016
aF0.0011872257529836887
aF0.00017862267391254385
aF0.12049600949853408
aF0.030642348005392648
aF0.0078361860255686637
aF0.18339860817085177
aF0.0029367368140512506
aF0.0064325760106316073
aF0.00056374016100411734
aF0.0078078819363461725
aF0.0017038606345749524
aF0.040466595070582562
aF0.049378063676107378
aF0.0011640369288112599
aF0.0052754048127000202
aF0.013631931395798316
aF0.01045187035126648
aF0.0049428033465754792
aF0.0091797770488028663
aF0.077763427692952788
aF0.0063644870570401506
aF0.10017549217344192
aF0.025625591416217727
aF0.00060091059142883534
aF0.026097211428841121
aF0.086161098646071049
aF0.0034300691322264065
aF0.0067604032930318721
aF0.086117339842106844
aF0.02675991359818701
aF0.011745105785339924
aF0.017657818656814327
aF0.010559516145118545
aF0.018280167606585983
aF0.010972597390335695
aF0.010303756302746632
aF0.0018487913937927018
aF0.0014890224351851702
aF0.0010516162692086725
aF0.0073294405245491146
aF0.0024093031835598394
aF0.099304544656884777
aF0.001271228720525355
aF0.056890014424173088
aF0.00084405294824373351
aF0.0019323394952964858
aF0.018338935534810995
aF0.00065626838842222255
aF0.048993059860056858
aF0.10048331789945829
aF0.056595151743678539
aF0.059601746232720049
aF0.0095702384388764786
aF0.029383895909881788
aF0.0030928073807607263
aF0.030973926432147705
aF0.013722754557600607
aF0.10732608268199638
aF0.0013908106557143558
aF0.016511900891947102
aF0.0082293741565750839
aF0.00045120583036047573
aF0.0037292513122810164
aF0.00083132179164566503
aF0.0087528293006295995
aF0.0018475408986700647
aF0.051562025387881405
aF0.022300371315549284
aF0.052087526610674895
aF0.00027785749275284597
aF0.026817885829124644
aF0.016252389905220405
aF0.0025122891467549298
aF0.0069065842518275522
aF0.00077721437610387366
aF0.031552057346949276
aF0.0056222151589563341
aF0.00089929711966448315
aF0.053032928659122541
aF0.05090477942850611
aF0.0085216224031253902
aF0.018190253813112123
aF0.00043279112170969795
aF0.0036251286386753852
aF0.0031433907666877561
aF0.010085735928030954
aF0.0070323044232334783
aF0.00076357385117737178
aF0.0014958426976484213
aF0.010262949081034426
aF0.011079448168926627
aF0.0015360822461816023
aF0.014484578784114074
aF0.023037414345744613
aF0.038525321031459211
aF0.052298386391830404
aF0.033077750059978532
aF0.012218659342371652
aF9.1777998547147691e-05
aF0.0036380871373555613
aF0.011458427419801274
aF0.033769552015834294
aF0.037122847726932702
aF0.009160908338014119
aF0.026706942893055762
aF0.0016616886556096422
aF0.002163773734882803
aF0.022910330121846036
aF0.0021644557611291281
aF0.0027312195718252868
aF0.0028185189313548998
aF0.095703787089411407
aF0.011317247986811978
aF0.019012322782015978
aF0.0045567764911554716
aF0.088202639637087479
aF0.0049782687113843838
aF0.013156218088986557
aF0.00079005920374299651
aF0.023840045566628203
aF0.044347551754254491
aF0.031970255380408444
aF0.014775464342224221
aF0.06832304773340285
aF0.0049555345031735481
aF0.0030697319320846452
aF0.014432175524819766
aF0.01454368681609392
aF0.043534121784470754
aF0.00082154608211500526
aF0.030882193902016977
aF0.0002982046091015448
aF0.00083586863328783236
aF0.0014203651263884436
aF0.0060001713704614934
aF0.0023752020985856664
aF0.018844999918952547
aF0.019479738102830779
aF0.0029669733109716633
aF0.0011716528885618901
aF0.015025424688081546
aF0.0024489743768877493
aF0.010561790247965875
aF0.085410760650914033
aF0.0023338256122998617
aF0.011971311157037749
aF0.013950664994914246
aF0.045133245990021005
aF0.0071994008535831286
aF0.024306437848073518
aF0.026975774905148905
aF0.0030343804656588762
aF0.060689350753526473
aF0.018409184238182479
aF0.017306575139956901
aF0.00099659948533844774
aF0.070256819483816624
aF0.0019274516405311556
aF0.034282776766193929
aF0.00096840906715701014
aF0.002519336751300289
aF0.031753027747533073
aF0.0037741513734974195
aF0.0013883098928111639
aF0.021472050439387453
aF0.054155430189532602
aF0.020581210490645815
aF0.0037568733752571834
aF0.043353384829194604
aF0.016090522342759244
aF0.0011527834957468959
aF0.083570653838328915
aF0.0087721533776088118
aF0.0042191734992245477
aF0.00064910711283580906
aF0.019517590559501821
aF0.016468137541141244
aF0.012262763706300675
aF0.024269608430771961
aF0.038433247488205327
aF0.0048657343807407428
aF0.00028001724253287543
aF0.0017628560185531145
aF0.025307652377678763
aF0.0060875844010321598
aF0.0040868604074374773
aF0.027074555039824991
aF0.0099395549692352751
aF0.0038129131984968958
aF0.0098979513682094442
aF0.12033777940938666
aF0.023163361859232647
aF0.0034919061785598821
aF0.013140531485321079
aF0.0031449821612625144
aF0.056320863521614792
aF0.0083785105624381729
aF0.0024213523139115828
aF0.0062363797937720865
aF3.1759688870538844e-05
aF0.014244959320203527
aF0.016149403942025312
aF0.012082708777270849
aF0.0029119565271014383
aF0.015875343062043676
aF0.013434484797487198
aF0.05394911725001926
aF0.080667722791887178
aF0.0056956466514773351
aF0.00070060009443335416
aF0.045878700677254337
aF0.0063366376519818765
aF0.00083177647580988184
aF0.0059403804028669927
aF0.00010382712889889113
aF0.0044441282621286941
aF0.00081813595088337974
aF0.004910520998258173
aF0.026760254611310173
aF0.0087280490136797881
aF0.0083132633848730722
aF0.0078600569441900428
aF0.012959567187962819
aF0.0025243382771066728
aF0.037705070799212231
aF0.0013363622270494019
aF0.014693277906121223
aF0.0098161082186504316
aF0.00019521864590645461
aF0.054805969557485686
aF0.0088634316782594848
aF0.030588240589850855
aF0.045579859510322895
aF0.019835755803412482
aF0.06074755487338785
aF0.059853191122373542
aF0.028072928702772212
aF0.040704053875344752
aF0.13068536794759
aF0.1908038218113676
aF0.02594125476051478
aF0.040971749177027353
aF0.01380323365466697
aF0.0084120435195491582
aF0.022842127497213528
aF0.0025990201510792716
aF0.026754684730298517
aF0.0026816589979256626
aF0.056399410210983235
aF0.10678182573742895
aF0.00010155370807780747
aF0.0046511234552304437
aF0.0021890087059968318
aF0.01534097549804796
aF0.0083390667111923715
aF0.0062404719512500371
aF0.0082758656123662466
aF0.0036219458495258677
aF0.011030569621273327
aF0.00025614632391149692
aF0.0021740041285776795
aF0.0016195167903153729
aF0.00024409719355975352
asS'learning_rate'
p95
F0.0017578125
sS'testErrors'
p96
(lp97
F0.11824698698145832
aF2.3924820979039041e-05
aF0.00035156224399483815
aF0.0034986365372095258
aF0.018042873122574712
aF1.3089870807828472e-05
aF0.028856581233975526
aF3.182468855535739e-05
aF3.2173015863815055e-05
aF0.012583911634307951
aF0.17114995431204108
aF0.0011825838096156675
aF0.00076724952152510328
aF2.0160256613794558e-05
aF1.4715457670695792e-06
aF0.035612574795280461
aF1.3083185905594809e-06
aF0.00015914474556252264
aF0.000255780310611601
aF0.00030903564758255175
aF0.7132457852249342
aF0.002047666166754396
aF7.5092010600766777e-06
aF0.00095471212387362807
aF0.0001320718023434442
aF0.00010012221567746736
aF0.0001160405663531609
aF0.0053534001923022856
aF1.5724242398851876e-05
aF0.0092255430648066784
aF4.8605873706498351e-05
aF0.002379514581486687
aF0.048109619369836584
aF0.0024009945570704965
aF0.00018561726793936206
aF0.010487268264601411
aF8.5214350887709216e-05
aF1.7834672764129017e-06
aF4.8098545806797307e-06
aF2.1790772291438631e-05
aF0.0010591510753027765
aF0.0001848925732679337
aF3.1067217442653814e-05
aF2.5264574474831247e-07
aF4.3136403903748096e-05
aF0.0083833965010520206
aF0.00059971328356500664
aF1.0745297871268973e-05
aF0.0033284377071823817
aF5.0537946377961031e-05
aF0.12269604606276156
aF0.0039145308407978543
aF0.0012428169203666413
aF0.0012298245914380312
aF9.891646159208976e-05
aF0.0065119202540823012
aF1.3441295573775977e-05
aF6.7702790948480129e-05
aF2.2790869578821168e-05
aF4.2453333325626752e-05
aF0.0021419171365751159
aF0.0056237407687794996
aF7.7790321442436648e-07
aF0.0010560395674578304
aF6.1590487042242933e-05
aF0.00072893476387726123
aF0.0035204230739011725
aF0.0016334444451274869
aF7.4428479805800993e-05
aF0.00042191748067067287
aF5.3754292674146604e-05
aF4.4666642239562835e-06
aF2.8953684969536737e-05
aF0.00011034848903834212
aF0.061221176803681145
aF9.660380955445464e-09
aF0.00013470435280458693
aF2.1509474314314855e-05
aF0.0010980661950006471
aF0.0011461836792034008
aF0.020010961279582119
aF0.0001213660340344413
aF0.0006257207457163787
aF0.00023879393677667202
aF0.0019621539546920302
aF0.003047225743075897
aF0.00018652965775598718
aF0.00011552514712466498
aF0.0003864563261421771
aF0.00011937615459136302
aF0.0010859862484785268
aF0.00024989425289004941
aF0.00095440982223934012
aF9.9822945811844802e-06
aF0.00015081868366100576
aF0.00024239130432627032
aF1.6733903821698887e-05
aF5.0028341307462005e-05
aF0.00016633802663061119
aF0.0032498650957993439
aF1.8917897376193416e-06
aF0.00016572206034430473
aF0.085266773749853753
aF8.2187130793134681e-08
aF1.0481974529075399e-06
aF0.00074302656882501122
aF0.017020248267463494
aF0.0016189944686555771
aF0.029864536641121424
aF0.00041926460025592778
aF9.7120381508519619e-05
aF0.02259056316898822
aF0.00026789561283736645
aF5.516871085415003e-05
aF0.00080080672964045845
aF0.0052488667776385695
aF0.00048905656301511204
aF0.043816138593861853
aF0.016306003081972307
aF0.00045912275327138235
aF0.00028280690549274326
aF0.0014981164786399546
aF7.7277331411782592e-05
aF2.6790900364401795e-05
aF0.0028961652282607484
aF0.00010982051096827598
aF8.3050169426775774e-08
aF0.00059744570110918899
aF0.0018926193842458056
aF4.8505096421588654e-05
aF0.00011391155332554402
aF0.0054731280475361346
aF0.021285386746846005
aF0.0011182564695562196
aF0.00035711735153647463
aF0.0002803043206454711
aF0.0017118155325983545
aF0.00023880193990155542
aF0.00025123666872335464
aF0.73434504006608758
aF2.782161980490964e-07
aF5.6982073844122377e-05
aF0.005585108467343336
aF4.0875393951685622e-05
aF4.6057733020473005e-05
aF8.4170678598370098e-05
aF0.00044395918353919936
aF0.00071570094240917576
aF0.035462806657055007
aF0.00039905309800081776
aF1.350694659970883e-06
aF0.00036163487817382755
aF0.0005975222943308227
aF0.001908017924135724
aF0.0011067345642309118
aF0.00034070966985639645
aF2.8988368974373937e-05
aF2.8579384409614389e-05
aF0.00054077019111419618
aF6.004641903262716e-05
aF0.00015624583155453563
aF0.0025650334906055917
aF1.5433179832540629e-05
aF9.0755514408706991e-05
aF0.00024186501964159341
aF0.00026551552603431726
aF0.00049061452046412254
aF0.00018538500360075854
aF0.0088875716360100263
aF1.9664125736725532e-06
aF0.0015864867220615397
aF0.0013617907105956662
aF2.935157014028019e-06
aF0.010119541561921852
aF0.00052750520689667498
aF9.6174583185214653e-06
aF0.00020621516438098242
aF0.0035213877181825763
aF0.030737268296209527
aF0.0091788188819111362
aF1.1945866633791951e-05
aF0.0006560963565681551
aF0.00042262590919940558
aF0.0030878987699598775
aF0.0001252500990956253
aF0.00014456380479672821
aF7.7996334011520661e-05
aF0.0060876487342235381
aF0.0045476816581377626
aF1.6036110393961737e-05
aF6.0441549960849704e-06
aF0.00058999077279043471
aF0.0015119829223896072
aF0.0075007971303337204
aF0.0002489824521632827
aF0.00012911094175879884
aF0.0021641289144165065
aF0.00031275460869751063
aF0.0020095512367711657
aF0.00016120015423908124
aF0.017732313823273275
aF0.00016044482225621603
aF0.019434295619153837
aF0.024347192749960774
aF8.9242851564583209e-05
aF0.00078275789482098123
aF1.8540820250108994e-05
aF0.044109856048487904
aF0.0013151547318417938
aF0.00018283153653484774
aF0.0058147438327571148
aF0.00034805343803909618
aF1.4813856681931876e-05
aF0.0024851251047875336
aF0.00047461610486882757
aF6.5566676073715839e-05
aF0.00036586622247355657
aF0.00099609490825991443
aF0.00016723712548156233
aF0.00010644144535518153
aF3.9498079080406544e-06
aF0.10488380421371761
aF0.0025327639251323526
aF0.0025151031253556957
aF0.008347641256392032
aF0.00072337713861097804
aF0.0004279247108010576
aF3.9753453970888242e-05
aF1.8434926658857097e-05
aF0.0039020506552912759
aF2.0361233480986551e-06
aF0.00063027875550666164
aF0.00016677080623072775
aF0.032600254546113538
aF0.00010641426198699449
aF0.0075076974042106431
aF0.00044742901915405194
aF0.00074589186848117385
aF0.00012551523778132038
aF0.00035545275818672155
aF0.00017640614470116104
aF0.00040499667310553824
aF7.4322301589612114e-05
aF7.5364645172912672e-06
aF7.8874145391565802e-05
aF0.00063366091995592803
aF0.029055659495203709
aF0.00053628557135629892
aF4.388218356668444e-05
aF7.0124425117628201e-05
aF0.00040881815508596992
aF0.017389612892241103
aF0.0085878300960381907
aF0.00074034967592742813
aF0.00098224059576533171
aF0.00070021160995026137
aF0.00013410139986450232
aF0.0012872234406247824
aF6.0591846933021134e-05
aF2.6924990182761551e-05
aF0.0024934921473677824
aF0.39950939790910556
aF0.010619841280830671
aF0.00015264772658233074
aF0.1836693502894905
aF0.00070250057110303964
aF0.00023832491723886225
aF2.1250294062733953e-05
aF0.00058162637607397591
aF0.00010314452741270476
aF0.0012719611233082387
aF0.0064491588176235921
aF6.1842178095187518e-05
aF3.322318396873556e-05
aF0.00090540191213445782
aF0.00015356790855754169
aF0.067365040434497703
aF0.0010531152097329516
aF2.8434140599899073e-05
aF0.00099209294562965572
aF3.4294918459137519e-06
aF5.277948948797596e-05
aF0.0098606203639591446
aF0.0027531004839166638
aF0.0016668456428275494
aF4.8820004721432127e-08
aF9.0913623163342666e-05
aF8.3561195386130857e-06
aF0.10296539208011714
aF1.4043267030155243e-05
aF0.00035084668241398159
aF0.00043943385420770092
aF0.00065037457433716138
aF0.0042868097579303859
aF0.0011253444407770931
aF0.0060660701780932283
aF0.45177538812328155
aF6.0269608796019187e-05
aF5.6788647033309647e-08
aF0.60433088468314988
aF0.0033751465333761639
aF1.5733739845172912e-06
aF0.40663100898977139
aF0.0071767883207222299
aF3.4938662618658303e-05
aF1.4266628770364138e-05
aF0.00018742881701601052
aF0.0003086691997052581
aF0.001068269308249458
aF0.0020898206861944412
aF0.00012250251852491598
aF9.8677215538497207e-06
aF0.0008637903209534187
aF0.0034883735408398368
aF0.00094585167314117208
aF0.00017292980107927119
aF0.0020768122357656552
aF0.00029623669206828215
aF0.041558994892957411
aF0.023994607371235613
aF5.1456729069480328e-05
aF0.0003112488275620127
aF0.0020294783894286091
aF0.00036965816798748398
aF4.5749376159490965e-05
aF0.040099286632409213
aF0.0092763954543033898
aF0.00066325168269107263
aF4.8350729840622097e-05
aF0.014912867860567199
aF0.09855034254029528
aF0.00066308621948628853
aF1.8826631688072101e-06
aF8.2175582155478614e-05
aF0.00028876992317195547
aF1.087156010623566e-05
aF0.00080077318284024518
aF0.00011322043845198905
aF0.070382446643138696
aF6.2335152058464268e-05
aF0.020805749600641885
aF1.4875085559717308e-05
aF1.9067317934278431e-05
aF0.0011389882866272619
aF2.4182046507997347e-05
aF0.027954228792954419
aF0.0073375230046083297
aF0.011421264170368215
aF0.02088971307843553
aF0.0024959466640047234
aF0.0067696052771213707
aF2.4298831587733812e-08
aF0.062366875079741473
aF0.00013082374241786787
aF0.29092756247921664
aF3.1052190770769807e-05
aF0.0020187666801893315
aF0.00034000189852912587
aF0.00017829681321309296
aF2.3088088650582557e-08
aF0.00016700925042774389
aF4.8362929069637157e-05
aF0.0004359639515949041
aF0.0030365585698293208
aF0.0056420169730961728
aF0.025162175608999603
aF0.00018406013774875009
aF9.3165527556126083e-05
aF0.0013676827703685704
aF2.5608385140412925e-05
aF0.00062004630128753633
aF8.4164592305464172e-05
aF0.049312195638503038
aF2.6005452448868047e-07
aF8.0682347441930774e-05
aF0.020781260090745581
aF0.10924870207445336
aF3.7735708638219858e-05
aF3.9876008738794325e-05
aF7.960060189309256e-05
aF0.0010057376285541764
aF0.00084557240222964114
aF0.0044864074289488768
aF1.5557075700356304e-06
aF4.256819040940114e-05
aF5.3518355486411627e-05
aF0.030658948275742573
aF0.00015905334830258497
aF1.2519315421214147e-05
aF4.6604410567502843e-05
aF0.0045384284698235305
aF0.01260239105447155
aF0.015512613832287796
aF0.035932112693874169
aF1.6242299512284584e-05
aF6.3824017413712363e-05
aF6.4177265520813526e-06
aF0.00051825949413666537
aF0.00060148099428187151
aF0.0016888016830198577
aF0.00052826416276769285
aF0.016952328553296619
aF8.9749389124261338e-06
aF1.2984308716827488e-06
aF0.00043022859908687082
aF2.695060377397122e-05
aF0.0017543540883581191
aF0.00032981100878967879
aF0.24930047356939505
aF0.00039118884966700629
aF6.2835685647655477e-06
aF0.00062137269060005167
aF0.12793448136841076
aF0.0058056372970649826
aF0.00010142375693214714
aF4.1691216741315682e-05
aF0.0024433154523672766
aF0.0027047768476085804
aF0.0068748025932733742
aF5.2544628001586508e-05
aF0.016985932812926686
aF0.0054281093148321139
aF2.3520599197896692e-05
aF0.00014565312111730993
aF6.9453340480203589e-05
aF0.011086882053950512
aF6.4527918708887666e-05
aF0.0084115969779404703
aF2.1779466095069464e-05
aF0.00048176240949948364
aF0.00095723022906010085
aF2.4765480831987793e-05
aF0.0019347189439793135
aF0.015325686636093967
aF0.00412934909557593
aF4.3566288731671733e-07
aF0.00034652408237866933
aF0.00035491022900017072
aF0.00015305221675950741
aF0.082625738837007065
aF0.026346384325957973
aF4.0298525659215347e-05
aF0.00065824091641289374
aF0.00087274136535917413
aF9.4381489927142343e-05
aF9.7223909771729144e-05
aF0.0027976797332530815
aF0.035121044847601555
aF0.00019065262920210107
aF0.00071836819930824866
aF1.1769568644057481e-05
aF0.0050730255953668922
aF5.8598151217061725e-06
aF0.0029648211664128612
aF3.1234740273316895e-05
aF0.0040751001676733838
aF0.00015343301335662648
aF3.7537635591947943e-06
aF0.012500144469594838
aF0.0011078335194396993
aF1.3996527006464889e-05
aF0.0020959653120588848
aF0.0083058208067698317
aF5.6383224796387965e-05
aF0.00035688049607604988
aF0.00081237124580672599
aF0.00024853090321604304
aF0.0010970161729695026
aF0.038605980564888974
aF0.006424027682428354
aF0.012097551188907717
aF1.5291245569561596e-06
aF0.00062414895259581249
aF0.00059725923186050058
aF0.00012701630673988475
aF0.0029259768769818784
aF0.010564421832386414
aF0.00015999605820066551
aF9.8754132827022679e-05
aF0.0001495579134487704
aF0.00057680563421431573
aF0.00022916075162022652
aF9.024177688289709e-05
aF0.029799568015799537
aF0.0010069464641035914
aF8.4830647186672708e-06
aF0.001005636915281719
aF0.057546241061597253
aF2.6900822330954965e-05
aF0.00047753752932191133
aF0.0031385353929405798
aF0.00044607952061396648
aF0.031872497176002379
aF0.00029803721614253331
aF0.00091506463120473447
aF0.00019122034727751385
aF5.0760921750846604e-05
aF0.025730740134861957
aF0.0003379705103869284
aF1.0842482043735695e-05
aF0.00055486185816212797
aF8.2010267596942295e-05
aF2.4172271211404461e-05
aF0.0027737566525720416
aF0.039861856780782357
aF2.0434384634458616e-05
aF3.7338406571196486e-06
aF0.0070302834732191106
aF0.00032978476051837388
aF1.6270955165965861e-05
aF6.0865470543674072e-06
aF5.6039967180563831e-05
aF0.00044465462762562872
aF5.4172777560048374e-06
aF0.00010701615426823203
aF0.00048982651048193662
aF0.042633404303116774
aF1.5764275194421771e-06
aF7.7279229723373113e-05
aF0.0019778288778847862
aF0.0035863034317349155
aF0.056843352971835515
aF1.1544911875658269e-06
aF1.746613082404188e-06
aF0.00050563815208883728
aF9.7574589930670799e-05
aF0.0080817661597203331
aF0.00029901934317798617
aF0.003833285675084347
aF0.0040048336255367216
aF0.0052003972645326777
aF0.0059811509170935532
aF0.030502359392818323
aF0.0042080771851721998
aF0.0039770179503481129
aF0.11924742577873376
aF0.35634619661156086
aF0.00024913103074024182
aF0.0021324580962866994
aF3.3247658650420637e-05
aF0.019989549234286894
aF0.0016432779745172879
aF1.9548540630534911e-05
aF0.00085787854101075623
aF0.00039993055553994879
aF0.0053779342735089273
aF0.020225720688328439
aF4.4197622943999565e-06
aF0.00019275571126717769
aF6.5557188861188877e-05
aF0.0021776093839916983
aF1.9684778660051924e-07
aF0.012861209196572718
aF0.0029974928017542138
aF5.6378728230386225e-05
aF0.00059800371028176456
aF1.9097871057904283e-07
aF0.00011704308960688791
aF4.7387216143373577e-05
aF9.1741659733156942e-07
asS'fileName'
p98
S''
sS'learningRates'
p99
(lp100
F0.5
aF0.25
aF0.27500000000000002
aF0.30250000000000005
aF0.3327500000000001
aF0.36602500000000016
aF0.40262750000000019
aF0.44289025000000026
aF0.48717927500000036
aF0.53589720250000039
aF0.58948692275000047
aF0.64843561502500058
aF0.71327917652750072
aF0.78460709418025087
aF0.86306780359827606
aF0.90000000000000002
aF0.90000000000000002
aF0.90000000000000002
aF0.90000000000000002
aF0.90000000000000002
aF0.90000000000000002
aF0.90000000000000002
aF0.90000000000000002
aF0.90000000000000002
aF0.90000000000000002
aF0.90000000000000002
aF0.90000000000000002
aF0.90000000000000002
aF0.45000000000000001
aF0.22500000000000001
aF0.1125
aF0.056250000000000001
aF0.028125000000000001
aF0.0140625
aF0.0070312500000000002
aF0.0035156250000000001
asS'netName'
p101
S'FinalNetwork'
p102
sS'validationErrors'
p103
(lp104
F0.042260893501968391
aF0.042197842206169851
aF0.042074283255827662
aF0.04193367005612357
aF0.041770968991848956
aF0.041578836958611448
aF0.041346142086917406
aF0.041055074491846422
aF0.040675134675191509
aF0.04014935830085594
aF0.039359199702911102
aF0.038029808139837987
aF0.035596846657780561
aF0.032577673856577893
aF0.031322797160629232
aF0.0306514161666742
aF0.029982034120569739
aF0.029290481262988999
aF0.028597910907635943
aF0.027931038278234743
aF0.027321270499164177
aF0.026799912931280638
aF0.026390483076484225
aF0.02610190353236258
aF0.025926452824378037
aF0.025843494147888037
aF0.025826458546651131
aF0.025849447630080499
aF0.025856747412769547
aF0.025889074836309027
aF0.025928711510180457
aF0.025968502701130384
aF0.026005965512123339
aF0.026040330269460402
aF0.026071407743088745
aF0.026099213321806501
asS'testDataPredictions'
p105
(lp106
F0.065553783350360773
aF0.012029319032071644
aF0.010826688822315238
aF0.019137723163318878
aF0.027306841493536047
aF0.011670239486052657
aF0.023743111594189157
aF0.010376662739266454
aF0.022281215852771579
aF0.03830371266625885
aF0.080165585951729873
aF0.012118130537706067
aF0.01408340905193628
aF0.01381279334073033
aF0.012240914377689838
aF0.040615586179344604
aF0.011280478105678447
aF0.014322074592006313
aF0.013904101098185183
aF0.01587118131257223
aF0.13981324418092017
aF0.017624331287421791
aF0.022488975934637577
aF0.013687390052983408
aF0.021478864444394254
aF0.015401119291712773
aF0.028940869010629391
aF0.032467041829040984
aF0.0099462277794951787
aF0.019789671028360916
aF0.017492659957103175
aF0.033746657977185415
aF0.03562229760309215
aF0.013204873159830949
aF0.018536482340770283
aF0.018604029690234416
aF0.019304166718214517
aF0.015069016567135838
aF0.023036763318653505
aF0.011715962242398936
aF0.017558797265616845
aF0.029535951339893063
aF0.017625939193589346
aF0.014746945199460312
aF0.015063081710880926
aF0.01663523124819876
aF0.011871525571859267
aF0.0099886174928622961
aF0.013094367245038518
aF0.010313969687744879
aF0.066496668718326393
aF0.020569991464902539
aF0.013892679808581722
aF0.013963762376255597
aF0.011139779706602317
aF0.014693471446543533
aF0.0099289887253632674
aF0.010838486968456991
aF0.010213751518704689
aF0.01831415342624166
aF0.016881077138754721
aF0.02133953290967153
aF0.01169632629955194
aF0.017354286462920386
aF0.011662237944204245
aF0.013156117179387038
aF0.040946916286999535
aF0.01305671477407557
aF0.015794767164480819
aF0.010829781026417318
aF0.010946048613314286
aF0.017892131918757891
aF0.014101830703705513
aF0.018870354642060518
aF0.040635494439953956
aF0.01813402486131056
aF0.020848612319192751
aF0.01224406935376968
aF0.016543460444216517
aF0.020076504676510076
aF0.019433910558479983
aF0.01070084087010157
aF0.011680351825395677
aF0.019096729525070522
aF0.011877225180180272
aF0.018545292698585875
aF0.016564768431554942
aF0.0121582027899006
aF0.024720877750470646
aF0.01183048000325875
aF0.023062260682777631
aF0.017803960023020503
aF0.017302474567107963
aF0.011907077380146243
aF0.012110183248425214
aF0.013734950393503319
aF0.011311193723928728
aF0.011412509021690626
aF0.023693162625355101
aF0.012572206708729737
aF0.014806263041943745
aF0.013045439836846813
aF0.04529080770024909
aF0.028351540129090434
aF0.012143315363060332
aF0.018736813471026945
aF0.048251414300945782
aF0.014113418340351984
aF0.037484134042196166
aF0.023661990599969599
aF0.017668191827252062
aF0.027420302307051253
aF0.012445295596812749
aF0.012443884249110594
aF0.015748476767716173
aF0.023195501145336708
aF0.013554826511519286
aF0.039161324451939795
aF0.022586726002853181
aF0.011180002039879585
aF0.026559482656047816
aF0.017790748270215713
aF0.014821615159359779
aF0.010475986772752768
aF0.020522033210439754
aF0.012400045891457483
aF0.017604307770381029
aF0.039705926916076731
aF0.018750587289021702
aF0.012652265347615946
aF0.014947994213493698
aF0.023771433207355485
aF0.035457407008794732
aF0.021657762185637117
aF0.01212957565586348
aF0.011081583162673707
aF0.014060477885514108
aF0.01284352828853352
aF0.023761428527162266
aF0.14306065555017974
aF0.011373429885300606
aF0.010128950264717489
aF0.017264414216899716
aF0.038022967732606071
aF0.015554646003397994
aF0.024030740124744817
aF0.024109379702692259
aF0.016755617203678852
aF0.030250444787806051
aF0.012323926715494923
aF0.025247612892267717
aF0.019828718701897889
aF0.010986471458712321
aF0.018389821283608016
aF0.012527645775918705
aF0.022847775227998399
aF0.013708828945233642
aF0.014389074274071344
aF0.041354919737316385
aF0.012865909830252077
aF0.014047509953438479
aF0.023134916757960096
aF0.016863750186738462
aF0.014109262357143555
aF0.019444507085034281
aF0.019399617113750392
aF0.013685589641648786
aF0.01322614058097786
aF0.015143029700091383
aF0.016343511707877127
aF0.012186893066363355
aF0.014421776998178133
aF0.029773125490727682
aF0.02232513535431685
aF0.011903997578151339
aF0.010318277498780471
aF0.019399844818102582
aF0.015183203312217518
aF0.032146841280273994
aF0.028228891059941176
aF0.015704947802155082
aF0.013233314177260345
aF0.019121896793395564
aF0.014615659588588403
aF0.020824543466467602
aF0.017231353131258238
aF0.013076880247833459
aF0.023434315700333504
aF0.014769873070216604
aF0.012711429155322215
aF0.029179751766355472
aF0.013241655785344876
aF0.01177161525314477
aF0.017280845883979684
aF0.026263671743828373
aF0.013940235904912612
aF0.013029263106943877
aF0.023970497333039548
aF0.023085358866862232
aF0.010446438799261557
aF0.021620325931961549
aF0.013036726287328238
aF0.029232617693362849
aF0.029329247106414397
aF0.011299158553341831
aF0.014377769672632962
aF0.018966580782154133
aF0.031872533847061395
aF0.016668745373753558
aF0.015323821060302721
aF0.023889196657045496
aF0.01451476997265704
aF0.013130731653168273
aF0.012665247147532621
aF0.032708949937690419
aF0.012379927182070137
aF0.018885716844051537
aF0.025217190837828279
aF0.020313293908427971
aF0.011429974339290362
aF0.014510279646944705
aF0.062491466990504348
aF0.017643640068281667
aF0.019012954917450937
aF0.024617160112339387
aF0.012456720153047383
aF0.033252318349090378
aF0.010240399830839929
aF0.013998301945862626
aF0.01619116789327316
aF0.010012402744152202
aF0.026605353985063952
aF0.01456433741216214
aF0.043460138808764086
aF0.026888443762495794
aF0.025970954361684454
aF0.018168045601256795
aF0.017656719946580114
aF0.011380281223831014
aF0.011302949497166516
aF0.012507365412472372
aF0.017681936227861652
aF0.010434705241169026
aF0.010758334595813306
aF0.014398194600632498
aF0.01238604006927616
aF0.037151059268817566
aF0.033292227519879508
aF0.026787580040620269
aF0.011942780589305179
aF0.023144621800118947
aF0.026816842370963719
aF0.043374979887960075
aF0.013707137621319724
aF0.014704624566866486
aF0.018340269373677019
aF0.018317018449680686
aF0.019508932309169242
aF0.016309114476650864
aF0.014470783905364543
aF0.01418188546391606
aF0.11834266371038604
aF0.029873778383220456
aF0.016619156616020894
aF0.088870253324474027
aF0.019695207704266984
aF0.011583581335514452
aF0.010062330968367296
aF0.032220187165038792
aF0.015257042859345194
aF0.01358630180923282
aF0.026286704273800737
aF0.019102815105597706
aF0.01142879738286681
aF0.012004239859196533
aF0.0179797974481028
aF0.052296849766790124
aF0.019668186236156564
aF0.012463448040243484
aF0.014604670969133829
aF0.011510755975585395
aF0.022173053945835585
aF0.018662080265071501
aF0.020119807895376967
aF0.012279566504832163
aF0.014429309739247964
aF0.020257793410600852
aF0.0099445157307938691
aF0.04893690645702177
aF0.011799368388093191
aF0.015017507397587159
aF0.018439729135428476
aF0.028243665140521814
aF0.020454230544251491
aF0.021706542859342388
aF0.019689718314417209
aF0.11900980947852773
aF0.01118887264954777
aF0.010314392878110581
aF0.1357135458383858
aF0.017706136212680169
aF0.022193197409428943
aF0.12295071771181311
aF0.017119162176571778
aF0.013408113695770205
aF0.010797258887279558
aF0.015035958152606587
aF0.021835672020368544
aF0.018035106265264028
aF0.01870911972948824
aF0.01330928299232852
aF0.015228548593764251
aF0.037887834126384627
aF0.01498461209820647
aF0.013678785418434109
aF0.024871512471365195
aF0.029823149797462725
aF0.013783768704836967
aF0.03475976619354073
aF0.025300250260392908
aF0.0096599340765549744
aF0.02149871785353941
aF0.03264617469326804
aF0.021831313882572166
aF0.013375883653731631
aF0.04774297779626932
aF0.017865718444745927
aF0.013789685686815042
aF0.019677282355816898
aF0.019178874392355036
aF0.048505482632026892
aF0.016132248331605179
aF0.019422540166747174
aF0.010401704747566205
aF0.011082992566479861
aF0.0099244877156621971
aF0.013186924239027542
aF0.010442672494379588
aF0.048443741291216674
aF0.011341902733890477
aF0.033930030908149895
aF0.011601915449435198
aF0.010132741097569382
aF0.019087149891299414
aF0.012325849612315261
aF0.036789251978076976
aF0.030289143055334131
aF0.024778415291090532
aF0.032557124885442379
aF0.013252492846260412
aF0.018843624203083924
aF0.011742983863226666
aF0.038867548436165446
aF0.020210428764068894
aF0.10909301881653202
aF0.013915380787978561
aF0.015002982708682496
aF0.012885802211310053
aF0.011231466896075272
aF0.011769348247953622
aF0.010565255148488748
aF0.019423632844026789
aF0.010968079598542794
aF0.028158536962609251
aF0.019094401701953718
aF0.030742712954841996
aF0.013961928828063783
aF0.029205398744938219
aF0.015051337550474326
aF0.015179269865447884
aF0.012100945466321631
aF0.012397841042402623
aF0.033602614621239764
aF0.013145960571244288
aF0.015081400476195592
aF0.02840187026339976
aF0.06638355721087523
aF0.016220177991110717
aF0.013731756571171927
aF0.009903511848414346
aF0.01504355642300928
aF0.031053807465102664
aF0.016203295296116006
aF0.014318926903246213
aF0.011827798163497756
aF0.010439269659097271
aF0.026125259199835875
aF0.018144951968347468
aF0.0098078362023264198
aF0.015981965901117324
aF0.023929924543664778
aF0.025992645804661523
aF0.02645726426483731
aF0.039816321004746885
aF0.018941017911718306
aF0.012573960426277097
aF0.012669983777401568
aF0.028943948303520706
aF0.023714084050548225
aF0.018697685788603143
aF0.01234216528023057
aF0.026048308614607656
aF0.010698743899079951
aF0.010710065879019719
aF0.017271394028170999
aF0.013093284979986155
aF0.0117444639762837
aF0.010706675131592482
aF0.10215570599274677
aF0.014297287174527907
aF0.017701726603627295
aF0.034927603551613381
aF0.072965189959328935
aF0.018015303200592005
aF0.013865388689365103
aF0.011177528818102881
aF0.016164583629807709
aF0.024240268879417586
aF0.024863382056157551
aF0.015857758995109369
aF0.028231393960628296
aF0.014473392335732686
aF0.01175138676308253
aF0.015584684493544627
aF0.013392692821921914
aF0.025349613910055149
aF0.011479320863620853
aF0.025947886349943192
aF0.012233239942847829
aF0.011576527203976377
aF0.032420884985587269
aF0.013380806713226107
aF0.012442615177082509
aF0.0205147266965615
aF0.018437421264039723
aF0.013770342628587886
aF0.010579589968695286
aF0.017130480088586711
aF0.016779067519485553
aF0.044369680844361867
aF0.030401666710204549
aF0.012656331867669554
aF0.016058269562471975
aF0.019672294695030953
aF0.033655885414986979
aF0.01353048539550091
aF0.018398583424138411
aF0.031962576322957043
aF0.011101647242424038
aF0.023032743260765418
aF0.034946590448749287
aF0.015775843223326882
aF0.013448547017109258
aF0.036013267017292419
aF0.012961786107612883
aF0.016885318964462513
aF0.014625604659428183
aF0.010077042976421874
aF0.019646897448297767
aF0.012051901978872485
aF0.011415739064894985
aF0.016100278133073503
aF0.025012270842506318
aF0.019116905369349475
aF0.015755129472709236
aF0.025341048799714185
aF0.019645416891955092
aF0.011478212308924093
aF0.033806139435231579
aF0.01465336644366844
aF0.017258518833647533
aF0.012612252662087509
aF0.016620104885327818
aF0.017768920380574878
aF0.021143094880128773
aF0.018643003254035458
aF0.022838518097274305
aF0.014188255079689719
aF0.012610531398900775
aF0.016862096034942497
aF0.021012345135020687
aF0.013488335690623913
aF0.011554060142762978
aF0.028144302861607847
aF0.01456527237018782
aF0.014758207032962298
aF0.012426163544749968
aF0.051882329223931399
aF0.025515006362467646
aF0.011952612631329278
aF0.013802691348634976
aF0.010793163896451711
aF0.034826773063493487
aF0.013090437511714868
aF0.012501120427185512
aF0.012849825900692282
aF0.010727519054411702
aF0.021840214622608059
aF0.013277434606832575
aF0.014562131803397067
aF0.030907225947687095
aF0.015812475421454218
aF0.029011479043272503
aF0.020757683261216252
aF0.061577100145978864
aF0.012331904903245955
aF0.010734663084088322
aF0.019616072974781233
aF0.012417010270282098
aF0.0098577084620269217
aF0.016102548032637096
aF0.011134302247877198
aF0.01262292563783198
aF0.011971789457852454
aF0.012313801187605517
aF0.017290843026138362
aF0.029356478672265322
aF0.015636695875734723
aF0.01651314822165743
aF0.015485889787852264
aF0.014352280864074717
aF0.048241214362961096
aF0.010321663173337804
aF0.01469105986302501
aF0.029724448276629459
aF0.012619207738362595
aF0.024392518236861345
aF0.012364075945069721
aF0.016564429996607673
aF0.020284398244215511
aF0.018361025539277785
aF0.023878817999960028
aF0.034541320628957692
aF0.020874122912822233
aF0.029502750264004073
aF0.073939265774330895
aF0.13307251186235455
aF0.021604270776874379
aF0.020182085036423734
aF0.020445033627953423
aF0.019573268873230069
aF0.018211852806695621
aF0.012451433286099199
aF0.020552391507036194
aF0.011076602503463718
aF0.021146172674707791
aF0.028266144170340155
aF0.010669232215168346
aF0.01351964262889927
aF0.011140424704328793
aF0.017779274715818371
aF0.012826475642299431
aF0.0164863777899453
aF0.014632643669223814
aF0.01409870105125533
aF0.014407218245305912
aF0.010590830405926925
aF0.016560783568086958
aF0.010154928854848998
aF0.01120673326062442
asS'weightDecayFactor'
p107
F0.025000000000000001
sS'momentum'
p108
F0.90000000000000002
sS'trainingErrors'
p109
(lp110
F0.031078700204174962
aF0.031001837025683245
aF0.030920321462520967
aF0.030827734757226541
aF0.030720753728833462
aF0.030594544539300779
aF0.030441764186635401
aF0.030250646158878639
aF0.030001023122576666
aF0.029655238541300054
aF0.029135086770449924
aF0.028260005998840741
aF0.026659694324253656
aF0.024685989457239804
aF0.024014730945209568
aF0.023791780865470687
aF0.023576705540236702
aF0.02335248927254641
aF0.023121600719019336
aF0.022886667874800207
aF0.022650247848858149
aF0.022414513644944189
aF0.022180779365287281
aF0.021949208745301815
aF0.021718928969831075
aF0.021488554319579304
aF0.021256892528406929
aF0.021023522983087489
aF0.020795760686229341
aF0.020622992722979228
aF0.020478157107798111
aF0.020347807132202557
aF0.02022535057908742
aF0.020107641637857155
aF0.019993258439277836
aF0.019881632835744355
asb.