(dp1
S'training'
p2
(lp3
F0.031066208041392339
aF0.031022617685674041
aF0.030979578316083393
aF0.030933105898070242
aF0.030882547370376667
aF0.030827174079791311
aF0.030766068145424329
aF0.030698051544660813
aF0.030621584737658209
aF0.030534613449578949
aF0.030434329597642418
aF0.030316784677396125
aF0.030176238462122102
aF0.030004009481598603
aF0.029786337674531042
aF0.029500186444347487
aF0.029104612386644458
aF0.028523240920939073
aF0.02761944155171888
aF0.026265622941706781
aF0.024883234129733037
aF0.024226420864638935
aF0.023985654174791631
aF0.023823608754926052
aF0.023666043900201023
aF0.023503579471709328
aF0.023335841679512425
aF0.023163437567145544
aF0.022987082569741864
aF0.022807525950224186
aF0.022625513231209007
aF0.022441728215499186
aF0.02225673386602179
aF0.022070936530473408
aF0.021884590895615716
aF0.021697848598402805
aF0.021510836848165897
aF0.021323742673111951
aF0.021136878535521448
aF0.020950714576797411
aF0.020781439988413041
aF0.020651506191293911
aF0.020541483942986577
aF0.020441781664256867
aF0.020347682408382636
aF0.020256892813799759
aF0.02016832459481175
aF0.020081487281166505
aF0.019996185182097826
aF0.019912365999593909
asS'i'
(lp4
(i__main__
Neuron
p5
(dp6
S'activation'
p7
F0.044620138464782744
sS'delta'
p8
F0
sS'bias'
p9
F1
sS'S'
F0
sS'n'
I0
sba(i__main__
Neuron
p10
(dp11
g7
F0.00024678740740889139
sg8
F0
sg9
F1
sS'S'
F0
sS'n'
I1
sba(i__main__
Neuron
p12
(dp13
g7
F0.00035526954238568998
sg8
F0
sg9
F1
sS'S'
F0
sS'n'
I2
sba(i__main__
Neuron
p14
(dp15
g7
F1.5951031693452621e-05
sg8
F0
sg9
F1
sS'S'
F0
sS'n'
I3
sba(i__main__
Neuron
p16
(dp17
g7
F0.010593790762303964
sg8
F0
sg9
F1
sS'S'
F0
sS'n'
I4
sba(i__main__
Neuron
p18
(dp19
g7
F0.00013868325896511293
sg8
F0
sg9
F1
sS'S'
F0
sS'n'
I5
sba(i__main__
Neuron
p20
(dp21
g7
F0.014929296296045703
sg8
F0
sg9
F1
sS'S'
F0
sS'n'
I6
sba(i__main__
Neuron
p22
(dp23
g7
F0.39915260711108336
sg8
F0
sg9
F1
sS'S'
F0
sS'n'
I7
sbasS'k'
(lp24
(i__main__
Neuron
p25
(dp26
g7
F0.023912239293543473
sg8
F-0.00036930672826171831
sg9
F1
sS'S'
F-3.7091620689381051
sS'n'
I12
sbasS'j'
(lp27
(i__main__
Neuron
p28
(dp29
g7
F0.80699217289495551
sg8
F5.9896140845810841e-06
sg9
F1
sS'S'
F1.4305832261770155
sS'n'
I8
sba(i__main__
Neuron
p30
(dp31
g7
F0.48522891670977952
sg8
F0.00037493837646453593
sg9
F1
sS'S'
F-0.059101530579654726
sS'n'
I9
sba(i__main__
Neuron
p32
(dp33
g7
F0.66828265413266708
sg8
F0.00022562139810152455
sg9
F1
sS'S'
F0.70042798054189392
sS'n'
I10
sba(i__main__
Neuron
p34
(dp35
g7
F0.7388486803812061
sg8
F7.8127419261508912e-05
sg9
F1
sS'S'
F1.0399931293276372
sS'n'
I11
sbasS'weights'
p36
(lp37
(lp38
F0
aF0
aF0
aF0
aF0
aF0
aF0
aF0
aF0.52351196356722474
aF-4.2629444872179283
aF-0.31874152815698481
aF0.035243569864021239
aF0
aa(lp39
F0
aF0
aF0
aF0
aF0
aF0
aF0
aF0
aF0.72266731187004185
aF0.94592891154791625
aF0.93600535816831354
aF0.68743924615106766
aF0
aa(lp40
F0
aF0
aF0
aF0
aF0
aF0
aF0
aF0
aF1.011357326173473
aF0.9265200644491085
aF0.904512990964776
aF0.92693055976410177
aF0
aa(lp41
F0
aF0
aF0
aF0
aF0
aF0
aF0
aF0
aF1.0338726902244901
aF1.0749627353040607
aF0.97270981420387015
aF0.93726623837740197
aF0
aa(lp42
F0
aF0
aF0
aF0
aF0
aF0
aF0
aF0
aF0.64575723802222562
aF0.51438784647367308
aF0.79233231857835851
aF0.69181124924551607
aF0
aa(lp43
F0
aF0
aF0
aF0
aF0
aF0
aF0
aF0
aF0.75272870800071001
aF0.85474606181164692
aF1.083651319400379
aF0.91248096520521438
aF0
aa(lp44
F0
aF0
aF0
aF0
aF0
aF0
aF0
aF0
aF0.66316728758477539
aF1.035210136092849
aF0.67338778308898761
aF0.80530792102375737
aF0
aa(lp45
F0
aF0
aF0
aF0
aF0
aF0
aF0
aF0
aF0.97662453342672328
aF-2.2311900041929871
aF-0.76307348601361713
aF0.046111705487100134
aF0
aa(lp46
F0
aF0
aF0
aF0
aF0
aF0
aF0
aF0
aF0
aF0
aF0
aF0
aF-0.10412796416920622
aa(lp47
F0
aF0
aF0
aF0
aF0
aF0
aF0
aF0
aF0
aF0
aF0
aF0
aF-4.0645442625141719
aa(lp48
F0
aF0
aF0
aF0
aF0
aF0
aF0
aF0
aF0
aF0
aF0
aF0
aF-2.7559078729538342
aa(lp49
F0
aF0
aF0
aF0
aF0
aF0
aF0
aF0
aF0
aF0
aF0
aF0
aF-1.0963987508834412
aa(lp50
F0
aF0
aF0
aF0
aF0
aF0
aF0
aF0
aF0
aF0
aF0
aF0
aF0
aasS'learning'
p51
(lp52
F0.29999999999999999
aF0.14999999999999999
aF0.16500000000000001
aF0.18150000000000002
aF0.19965000000000005
aF0.21961500000000006
aF0.24157650000000008
aF0.26573415000000011
aF0.29230756500000016
aF0.32153832150000022
aF0.35369215365000028
aF0.38906136901500032
aF0.4279675059165004
aF0.47076425650815046
aF0.5178406821589655
aF0.56962475037486215
aF0.62658722541234846
aF0.6892459479535834
aF0.7581705427489418
aF0.83398759702383607
aF0.90000000000000002
aF0.90000000000000002
aF0.90000000000000002
aF0.90000000000000002
aF0.90000000000000002
aF0.90000000000000002
aF0.90000000000000002
aF0.90000000000000002
aF0.90000000000000002
aF0.90000000000000002
aF0.90000000000000002
aF0.90000000000000002
aF0.90000000000000002
aF0.90000000000000002
aF0.90000000000000002
aF0.90000000000000002
aF0.90000000000000002
aF0.90000000000000002
aF0.90000000000000002
aF0.90000000000000002
aF0.45000000000000001
aF0.22500000000000001
aF0.1125
aF0.056250000000000001
aF0.028125000000000001
aF0.0140625
aF0.0070312500000000002
aF0.0035156250000000001
aF0.0017578125
aF0.00087890625000000002
asS'validation'
p53
(lp54
F0.042328709272510298
aF0.042328487398212794
aF0.042270529494336968
aF0.042204985238581308
aF0.042133310635267707
aF0.042054501657440589
aF0.041967199869222552
aF0.041869660109067112
aF0.0417596027187397
aF0.04163398657260315
aF0.041488653944749453
aF0.041317754214699048
aF0.041112768402405339
aF0.040860776235810595
aF0.040541204641279631
aF0.040119358111647657
aF0.039532858023088285
aF0.038663212468774445
aF0.037292151854708112
aF0.035199999333029801
aF0.033018922992070772
aF0.031893760531667398
aF0.031335258245993286
aF0.030861790526522635
aF0.030374869810584106
aF0.029868415309853933
aF0.029349017451607121
aF0.02882553486177938
aF0.028308638839527767
aF0.027810840044120974
aF0.027345809735160292
aF0.026926966309759062
aF0.026565621148963128
aF0.026269202118625271
aF0.026040124787573237
aF0.025875673369662608
aF0.025768872033383766
aF0.025709987496325384
aF0.025688175628823182
aF0.025692876836499377
aF0.025697320306688781
aF0.025718783114504588
aF0.025745830506543943
aF0.025774467670625259
aF0.025803295230638297
aF0.025831742344431984
aF0.025859496381316658
aF0.025886332508929372
aF0.025912070208648788
aF0.025936565930771874
asS'changes'
p55
(lp56
(lp57
F1
aF1
aF1
aF1
aF1
aF1
aF1
aF1
aF2.6191226160852847e-07
aF1.6395206228136264e-05
aF9.8659128634297375e-06
aF3.4163351400377686e-06
aF1
aa(lp58
F1
aF1
aF1
aF1
aF1
aF1
aF1
aF1
aF1.4485981046872754e-09
aF9.0679468468466095e-08
aF5.4566909495575719e-08
aF1.8895245982153364e-08
aF1
aa(lp59
F1
aF1
aF1
aF1
aF1
aF1
aF1
aF1
aF2.0853689057980851e-09
aF1.3054010172080145e-07
aF7.8553282638829237e-08
aF2.7201166639034991e-08
aF1
aa(lp60
F1
aF1
aF1
aF1
aF1
aF1
aF1
aF1
aF9.3629713612809028e-11
aF5.8610408475559337e-09
aF3.5269161904017391e-09
aF1.2212886819526297e-09
aF1
aa(lp61
F1
aF1
aF1
aF1
aF1
aF1
aF1
aF1
aF6.218366399182078e-08
aF3.892578334842781e-06
aF2.3423821653263154e-06
aF8.1111222180611736e-07
aF1
aa(lp62
F1
aF1
aF1
aF1
aF1
aF1
aF1
aF1
aF8.1404601716918534e-10
aF5.0957722440006434e-08
aF3.0664112565364878e-08
aF1.0618265815365398e-08
aF1
aa(lp63
F1
aF1
aF1
aF1
aF1
aF1
aF1
aF1
aF8.7632308900325963e-08
aF5.4856147926974375e-06
aF3.3010013289260285e-06
aF1.1430596431804457e-06
aF1
aa(lp64
F1
aF1
aF1
aF1
aF1
aF1
aF1
aF1
aF2.3429546759008088e-06
aF0.00014666447786238003
aF8.8256221886825743e-05
aF3.0561067823390114e-05
aF1
aa(lp65
F1
aF1
aF1
aF1
aF1
aF1
aF1
aF1
aF1
aF1
aF1
aF1
aF-0.00029206708632255796
aa(lp66
F1
aF1
aF1
aF1
aF1
aF1
aF1
aF1
aF1
aF1
aF1
aF1
aF-0.00017561433761430515
aa(lp67
F1
aF1
aF1
aF1
aF1
aF1
aF1
aF1
aF1
aF1
aF1
aF1
aF-0.00024186525494075694
aa(lp68
F1
aF1
aF1
aF1
aF1
aF1
aF1
aF1
aF1
aF1
aF1
aF1
aF-0.0002674045530554298
aa(lp69
F1
aF1
aF1
aF1
aF1
aF1
aF1
aF1
aF1
aF1
aF1
aF1
aF1
aas.