(i__main__
NN
p1
(dp2
S'exitCounter'
p3
I11
sS'Network'
p4
(i__main__
Layers
p5
(dp6
S'layers'
p7
(lp8
(i__main__
Layer
p9
(dp10
S'Neurons'
p11
(lp12
(i__main__
Neuron
p13
(dp14
S'activation'
p15
F0.028944592026554937
sS'delta'
p16
F0
sS'bias'
p17
F1
sS'S'
F0
sS'n'
I0
sba(i__main__
Neuron
p18
(dp19
g15
F9.4920926943959096e-05
sg16
F0
sg17
F1
sS'S'
F0
sS'n'
I1
sba(i__main__
Neuron
p20
(dp21
g15
F0.00029454138026114337
sg16
F0
sg17
F1
sS'S'
F0
sS'n'
I2
sba(i__main__
Neuron
p22
(dp23
g15
F2.4103936172777011e-05
sg16
F0
sg17
F1
sS'S'
F0
sS'n'
I3
sba(i__main__
Neuron
p24
(dp25
g15
F0.0092628250224269376
sg16
F0
sg17
F1
sS'S'
F0
sS'n'
I4
sba(i__main__
Neuron
p26
(dp27
g15
F0.00010395211749965074
sg16
F0
sg17
F1
sS'S'
F0
sS'n'
I5
sba(i__main__
Neuron
p28
(dp29
g15
F0.011237230130119525
sg16
F0
sg17
F1
sS'S'
F0
sS'n'
I6
sba(i__main__
Neuron
p30
(dp31
g15
F0.25286829054946947
sg16
F0
sg17
F1
sS'S'
F0
sS'n'
I7
sbasS'name'
p32
S'Input'
p33
sba(i__main__
Layer
p34
(dp35
g11
(lp36
(i__main__
Neuron
p37
(dp38
g15
F0.68108109838114772
sg16
F0.00014569947998800337
sg17
F1
sS'S'
F0.75874454269262293
sS'n'
I8
sba(i__main__
Neuron
p39
(dp40
g15
F0.64609749251796933
sg16
F0.00016491226611388803
sg17
F1
sS'S'
F0.60192893699584149
sS'n'
I9
sba(i__main__
Neuron
p41
(dp42
g15
F0.79494889799093504
sg16
F-5.4983269817302837e-05
sg17
F1
sS'S'
F1.35501860716486
sS'n'
I10
sba(i__main__
Neuron
p43
(dp44
g15
F0.69220732439210697
sg16
F0.00012375348206181201
sg17
F1
sS'S'
F0.81045908729284954
sS'n'
I11
sba(i__main__
Neuron
p45
(dp46
g15
F0.76450841046120332
sg16
F1.8053990892313804e-05
sg17
F1
sS'S'
F1.1775578269582148
sS'n'
I12
sbasg32
S'Hidden'
p47
sba(i__main__
Layer
p48
(dp49
g11
(lp50
(i__main__
Neuron
p51
(dp52
g15
F0.016565950368215801
sg16
F-0.00021317261296504835
sg17
F1
sS'S'
F-4.0837011726065242
sS'n'
I13
sbasg32
S'Output'
p53
sbasS'changes'
p54
(lp55
(lp56
F1
aF1
aF1
aF1
aF1
aF1
aF1
aF1
aF4.0007180999085531e-06
aF4.5282762024482992e-06
aF-1.5097690312165238e-06
aF3.3981095584703916e-06
aF4.9573909353973809e-07
aF1
aa(lp57
F1
aF1
aF1
aF1
aF1
aF1
aF1
aF1
aF1.9386378299560111e-08
aF2.1942779599383614e-08
aF-7.3159250047617513e-09
aF1.6466303238252148e-08
aF2.4022151436918422e-09
aF1
aa(lp58
F1
aF1
aF1
aF1
aF1
aF1
aF1
aF1
aF5.3765896609192051e-08
aF6.0855782396731508e-08
aF-2.0289878868996822e-08
aF4.5667403357312895e-08
aF6.6622681685573874e-09
aF1
aa(lp59
F1
aF1
aF1
aF1
aF1
aF1
aF1
aF1
aF4.2097369358732985e-10
aF4.7648574853895385e-10
aF-1.5886474119471511e-10
aF3.5756449125380501e-10
aF5.2163914590190344e-11
aF1
aa(lp60
F1
aF1
aF1
aF1
aF1
aF1
aF1
aF1
aF9.3732491426536872e-07
aF1.0609260630802202e-06
aF-3.5372252990728927e-07
aF7.9614026057731841e-07
aF1.1614629967573767e-07
aF1
aa(lp61
F1
aF1
aF1
aF1
aF1
aF1
aF1
aF1
aF3.1691763189035914e-08
aF3.5870824556676109e-08
aF-1.1959663593530347e-08
aF2.6918188367209525e-08
aF3.9270064932512524e-09
aF1
aa(lp62
F1
aF1
aF1
aF1
aF1
aF1
aF1
aF1
aF1.8780392064739787e-06
aF2.1256884473153435e-06
aF-7.0872412465394092e-07
aF1.5951593737252441e-06
aF2.3271258574073992e-07
aF1
aa(lp63
F1
aF1
aF1
aF1
aF1
aF1
aF1
aF1
aF4.8303881671066431e-05
aF5.4673514202854839e-05
aF-1.8228653659999316e-05
aF4.102810493481795e-05
aF5.9854560896486544e-06
aF1
aa(lp64
F1
aF1
aF1
aF1
aF1
aF1
aF1
aF1
aF1
aF1
aF1
aF1
aF1
aF-0.00013880719863342968
aa(lp65
F1
aF1
aF1
aF1
aF1
aF1
aF1
aF1
aF1
aF1
aF1
aF1
aF1
aF-0.00012890449801200265
aa(lp66
F1
aF1
aF1
aF1
aF1
aF1
aF1
aF1
aF1
aF1
aF1
aF1
aF1
aF-0.00016916708925525538
aa(lp67
F1
aF1
aF1
aF1
aF1
aF1
aF1
aF1
aF1
aF1
aF1
aF1
aF1
aF-0.00014178441931747232
aa(lp68
F1
aF1
aF1
aF1
aF1
aF1
aF1
aF1
aF1
aF1
aF1
aF1
aF1
aF-0.0001614763736335016
aa(lp69
F1
aF1
aF1
aF1
aF1
aF1
aF1
aF1
aF1
aF1
aF1
aF1
aF1
aF1
aasS'weights'
p70
(lp71
(lp72
F0
aF0
aF0
aF0
aF0
aF0
aF0
aF0
aF-1.1918989368645081
aF-1.4576880315359777
aF2.0021995291254178
aF-0.67252645073986284
aF0.51604392221633411
aF0
aa(lp73
F0
aF0
aF0
aF0
aF0
aF0
aF0
aF0
aF0.83785471005847856
aF1.0393856326241619
aF0.93276173050650957
aF0.79877145159530782
aF0.64102721441858035
aF0
aa(lp74
F0
aF0
aF0
aF0
aF0
aF0
aF0
aF0
aF0.88316237313708568
aF0.68903798116187742
aF0.61492281145575056
aF0.68988695969496971
aF0.86046067929322057
aF0
aa(lp75
F0
aF0
aF0
aF0
aF0
aF0
aF0
aF0
aF0.71178749367118066
aF0.62847137100059403
aF1.0051667404920237
aF1.0236134659103089
aF0.79029774452616186
aF0
aa(lp76
F0
aF0
aF0
aF0
aF0
aF0
aF0
aF0
aF0.88387457060206553
aF0.82359036939850327
aF0.66087504684435494
aF0.73425377679621562
aF0.98778048353285552
aF0
aa(lp77
F0
aF0
aF0
aF0
aF0
aF0
aF0
aF0
aF0.88400654802588108
aF0.80194125782084613
aF0.87801430193266694
aF1.0244258436692735
aF0.60688129499266386
aF0
aa(lp78
F0
aF0
aF0
aF0
aF0
aF0
aF0
aF0
aF0.9108859517855713
aF0.67333552894596527
aF0.6614292469771158
aF0.85223433032224494
aF0.65534076207086445
aF0
aa(lp79
F0
aF0
aF0
aF0
aF0
aF0
aF0
aF0
aF-0.89227537366352616
aF-1.4690422368459415
aF1.1196595535846354
aF-0.73897407556228767
aF0.57623227116804943
aF0
aa(lp80
F0
aF0
aF0
aF0
aF0
aF0
aF0
aF0
aF0
aF0
aF0
aF0
aF0
aF-3.0654864350655164
aa(lp81
F0
aF0
aF0
aF0
aF0
aF0
aF0
aF0
aF0
aF0
aF0
aF0
aF0
aF-3.2738075732448513
aa(lp82
F0
aF0
aF0
aF0
aF0
aF0
aF0
aF0
aF0
aF0
aF0
aF0
aF0
aF1.6743557845635728
aa(lp83
F0
aF0
aF0
aF0
aF0
aF0
aF0
aF0
aF0
aF0
aF0
aF0
aF0
aF-2.6621336384871803
aa(lp84
F0
aF0
aF0
aF0
aF0
aF0
aF0
aF0
aF0
aF0
aF0
aF0
aF0
aF-0.48257980938275508
aa(lp85
F0
aF0
aF0
aF0
aF0
aF0
aF0
aF0
aF0
aF0
aF0
aF0
aF0
aF0
aasS'NumNeurons'
p86
I14
sS'NumLayers'
p87
I3
sbsS'testDataOutputValues'
p88
(lp89
F0.00095537539264658046
aF0.062841764385705573
aF0.00867579763630698
aF0.0011350649426684451
aF0.0081329919418735141
aF0.00013789693717449177
aF0.0060833785048571287
aF0.0011163797208290831
aF0.0067222580044220444
aF0.036652713165837757
aF0.011951628445111133
aF0.011383441991012532
aF0.01076262549539973
aF0.017748095680045223
aF0.0034535895525692833
aF0.05164526803919587
aF0.0018262624405428452
aF0.020122987375828134
aF0.013442086307164244
aF0.00026308792349821731
aF0.07507061923884005
aF0.012137079894707531
aF0.041896409254690722
aF0.062432402317241557
aF0.027167316009267622
aF0.083209590451702148
aF0.081984462739767977
aF0.03845085559319382
aF0.055753369770761604
aF0.17901261557666112
aF0.26136477234019134
aF0.035530821304566064
aF0.056120067249359085
aF0.018903776650809764
aF0.011518754139165912
aF0.031285538902663015
aF0.0035558911421397906
aF0.036645083366920017
aF0.0036690924444499253
aF0.077253364570041519
aF0.14626878853554512
aF0.00013478273353459809
aF0.0063669270576898118
aF0.002994244515684967
aF0.021010223992833844
aF0.011418788202325326
aF0.0085440668223394772
aF0.011332213341136283
aF0.0049571270699099472
aF0.015105693891595443
aF0.00034654858104736773
aF0.0029736907716616688
aF0.0022141365038916023
aF0.0003300433017559313
aF0.025484400362269084
aF0.009283378766450235
asS'learning_rate'
p90
F0.00043945312500000001
sS'testErrors'
p91
(lp92
F6.0045557941253656e-06
aF0.01333546923552212
aF0.00060802453126336173
aF3.1658344432139298e-05
aF2.7798219969576917e-05
aF0.0001157617021177354
aF0.00082461849342744349
aF7.2035425689376849e-06
aF0.00018999937200637137
aF0.00083961857349679615
aF0.083330028885640006
aF1.1394120269798459e-05
aF0.00020463042704814183
aF0.0037004730133992961
aF0.0068229348963761705
aF0.11041995489657061
aF1.8496210954188428e-06
aF1.0282571376575179e-05
aF0.0016123691955173488
aF0.00021128918316181352
aF0.01518754986567895
aF0.00055097606730288343
aF0.0072435042037854534
aF0.0074590436296454316
aF0.0098343398530164952
aF0.011141695307010707
aF0.058902641348813393
aF0.0078206421077277131
aF0.0069711736583497478
aF0.22824276953319522
aF0.53189672661107001
aF0.00034986542053329253
aF0.00385846786295825
aF0.00013244021636968465
aF0.038639731222924564
aF0.0029938664697423591
aF3.0028720517837073e-05
aF0.0014582717185988646
aF0.00075727064293787188
aF0.010077114834923958
aF0.038838473001184606
aF7.396467071796587e-06
aF0.00034051468516648831
aF0.00011983710569454877
aF0.0040225023837164118
aF1.9548664685703907e-06
aF0.024765911945479752
aF0.0056757301184528685
aF0.00013625768478190485
aF0.0010901143253779098
aF1.7285591326174498e-07
aF0.00029509296806461241
aF8.9626406761922266e-05
aF9.4636264684222696e-07
aF0.00080498296144336046
aF0.00015323076930556909
asS'fileName'
p93
S''
sS'learningRates'
p94
(lp95
F0.40000000000000002
aF0.20000000000000001
aF0.22000000000000003
aF0.24200000000000005
aF0.26620000000000005
aF0.29282000000000008
aF0.32210200000000011
aF0.35431220000000013
aF0.38974342000000017
aF0.42871776200000022
aF0.47158953820000027
aF0.51874849202000028
aF0.57062334122200031
aF0.62768567534420039
aF0.69045424287862045
aF0.75949966716648254
aF0.83544963388313087
aF0.90000000000000002
aF0.90000000000000002
aF0.90000000000000002
aF0.45000000000000001
aF0.22500000000000001
aF0.1125
aF0.056250000000000001
aF0.028125000000000001
aF0.0140625
aF0.0070312500000000002
aF0.0035156250000000001
aF0.0017578125
aF0.00087890625000000002
asS'netName'
p96
S'Network4'
p97
sS'validationErrors'
p98
(lp99
F0.043456951435923333
aF0.043235389092048215
aF0.042901507586543181
aF0.042456118531136018
aF0.041820696549812089
aF0.040824948319697942
aF0.039084955278164531
aF0.036307792009346709
aF0.034439545015624143
aF0.03365814943225421
aF0.032943776256867348
aF0.032178657827156745
aF0.031369786568267118
aF0.030543945730779343
aF0.029748370206141659
aF0.029052438680944617
aF0.028538072912376131
aF0.028272479613331628
aF0.028251040388241534
aF0.028411852331228397
aF0.028509822524976285
aF0.028637553411538768
aF0.028774839483451463
aF0.02891102304570653
aF0.029040328841153054
aF0.029159576562417525
aF0.029267077272736017
aF0.029362082112752326
aF0.029444467383035054
aF0.0295145259098945
asS'testDataPredictions'
p100
(lp101
F0.014896878157686123
aF0.026243060446326679
aF0.017222840502764236
aF0.013600119555690309
aF0.02394635014906274
aF0.015752513057594963
aF0.017456195274695926
aF0.016899354274466687
aF0.017250196696575334
aF0.025022187796608929
aF0.03438057271133594
aF0.023070924994101013
aF0.024878813948806658
aF0.021297448463744161
aF0.019088216162844809
aF0.060376138601067872
aF0.014246450081243768
aF0.021516231474781395
aF0.050064896650739238
aF0.01828647431280913
aF0.03331753682474304
aF0.017146862073028832
aF0.022388485986349769
aF0.02810421162991197
aF0.024762677104169718
aF0.033091300221743211
aF0.043852853445243284
aF0.02901586510154703
aF0.043302430003998534
aF0.096565675817625651
aF0.27068749728866576
aF0.032506458251284967
aF0.028781992503482567
aF0.031611635198172811
aF0.023910658356382199
aF0.025755969564316944
aF0.017628727644960377
aF0.03008343153459659
aF0.015044453656492662
aF0.029033310370668586
aF0.03645429557114984
aF0.014770906379921339
aF0.019080525667416897
aF0.015400332639483
aF0.024850084896311658
aF0.018356187610458014
aF0.020556203576665367
aF0.019699894198902224
aF0.020695978047332222
aF0.02021227260948014
aF0.014686197405648976
aF0.025039703613593096
aF0.013868788859205223
aF0.015686246944978263
aF0.028270097548242553
aF0.016565950368215801
asS'weightDecayFactor'
p102
F0.02
sS'momentum'
p103
F0.80000000000000004
sS'trainingErrors'
p104
(lp105
F0.03055441430846146
aF0.030365106192148359
aF0.030129899463757895
aF0.02981505140175738
aF0.029363225928748876
aF0.028649150614906266
aF0.027391442302597237
aF0.025418908445030409
aF0.024307280670879561
aF0.024069905860260581
aF0.023901764311201515
aF0.023725692772412141
aF0.023542019909033478
aF0.023353999329297995
aF0.023166421040574092
aF0.022985812819389974
aF0.022819877837983931
aF0.022675765353337703
aF0.022557059508181088
aF0.022466585773085645
aF0.022375786650630402
aF0.022321453770355985
aF0.022284984418020494
aF0.022257825073420882
aF0.022235793621675149
aF0.022216724628697757
aF0.022199423424501027
aF0.022183181595473306
aF0.022167545118437101
aF0.022152199673139753
asb.