(i__main__
NN
p1
(dp2
S'exitCounter'
p3
I11
sS'Network'
p4
(i__main__
Layers
p5
(dp6
S'layers'
p7
(lp8
(i__main__
Layer
p9
(dp10
S'Neurons'
p11
(lp12
(i__main__
Neuron
p13
(dp14
S'activation'
p15
F0.028944592026554937
sS'delta'
p16
F0
sS'bias'
p17
F1
sS'S'
F0
sS'n'
I0
sba(i__main__
Neuron
p18
(dp19
g15
F9.4920926943959096e-05
sg16
F0
sg17
F1
sS'S'
F0
sS'n'
I1
sba(i__main__
Neuron
p20
(dp21
g15
F0.00029454138026114337
sg16
F0
sg17
F1
sS'S'
F0
sS'n'
I2
sba(i__main__
Neuron
p22
(dp23
g15
F2.4103936172777011e-05
sg16
F0
sg17
F1
sS'S'
F0
sS'n'
I3
sba(i__main__
Neuron
p24
(dp25
g15
F0.0092628250224269376
sg16
F0
sg17
F1
sS'S'
F0
sS'n'
I4
sba(i__main__
Neuron
p26
(dp27
g15
F0.00010395211749965074
sg16
F0
sg17
F1
sS'S'
F0
sS'n'
I5
sba(i__main__
Neuron
p28
(dp29
g15
F0.011237230130119525
sg16
F0
sg17
F1
sS'S'
F0
sS'n'
I6
sba(i__main__
Neuron
p30
(dp31
g15
F0.25286829054946947
sg16
F0
sg17
F1
sS'S'
F0
sS'n'
I7
sbasS'name'
p32
S'Input'
p33
sba(i__main__
Layer
p34
(dp35
g11
(lp36
(i__main__
Neuron
p37
(dp38
g15
F0.72822910566817856
sg16
F1.4601004558421079e-05
sg17
F1
sS'S'
F0.98565629316426318
sS'n'
I8
sba(i__main__
Neuron
p39
(dp40
g15
F0.76907633070615
sg16
F-1.0543438161315331e-06
sg17
F1
sS'S'
F1.2031030043171866
sS'n'
I9
sba(i__main__
Neuron
p41
(dp42
g15
F0.7335790659725242
sg16
F1.8617396004859806e-05
sg17
F1
sS'S'
F1.012857867747615
sS'n'
I10
sba(i__main__
Neuron
p43
(dp44
g15
F0.79076381161822185
sg16
F-8.448513951841163e-06
sg17
F1
sS'S'
F1.3295356266649767
sS'n'
I11
sba(i__main__
Neuron
p45
(dp46
g15
F0.77363987144215973
sg16
F-1.653529688867418e-07
sg17
F1
sS'S'
F1.2289792627283374
sS'n'
I12
sba(i__main__
Neuron
p47
(dp48
g15
F0.68567373871299808
sg16
F3.3019628602756805e-05
sg17
F1
sS'S'
F0.77997041989329174
sS'n'
I13
sba(i__main__
Neuron
p49
(dp50
g15
F0.54729637098601058
sg16
F7.0333082207680569e-05
sg17
F1
sS'S'
F0.18975279658259003
sS'n'
I14
sbasg32
S'Hidden'
p51
sba(i__main__
Layer
p52
(dp53
g11
(lp54
(i__main__
Neuron
p55
(dp56
g15
F0.010254966501300146
sg16
F-5.9436486161411277e-05
sg17
F1
sS'S'
F-4.5696852430918957
sS'n'
I15
sbasg32
S'Output'
p57
sbasS'changes'
p58
(lp59
(lp60
F1
aF1
aF1
aF1
aF1
aF1
aF1
aF1
aF3.9887904911428552e-07
aF-2.8803200295935737e-08
aF5.0860125313224469e-07
aF-2.3080159985263338e-07
aF-4.5172121365942459e-09
aF9.0205012993974203e-07
aF1.9214015611067134e-06
aF1
aa(lp61
F1
aF1
aF1
aF1
aF1
aF1
aF1
aF1
aF1.932858039179294e-09
aF-1.3957237756586132e-10
aF2.4645416274336853e-09
aF-1.1184010008076104e-09
aF-2.1889166182786522e-11
aF4.3710865468324088e-09
aF9.3105829000627491e-09
aF1
aa(lp62
F1
aF1
aF1
aF1
aF1
aF1
aF1
aF1
aF5.36056007413812e-09
aF-3.8708798032046513e-10
aF6.8351235224093478e-09
aF-3.1017568958923767e-09
aF-6.0707091735222541e-11
aF1.2122707176933312e-08
aF2.5821833755686281e-08
aF1
aa(lp63
F1
aF1
aF1
aF1
aF1
aF1
aF1
aF1
aF4.1971861652557053e-11
aF-3.0308032990359645e-12
aF5.3517329326232591e-11
aF-2.428599055205836e-11
aF-4.7532153737676747e-13
aF9.4917803633888613e-11
aF2.0217858190559423e-10
aF1
aa(lp64
F1
aF1
aF1
aF1
aF1
aF1
aF1
aF1
aF9.345304047337038e-08
aF-6.7482778275663344e-09
aF1.191597643428906e-07
aF-5.4074314758424095e-08
aF-1.058333872298692e-09
aF2.1134057426544493e-07
aF4.5016357277831241e-07
aF1
aa(lp65
F1
aF1
aF1
aF1
aF1
aF1
aF1
aF1
aF3.1597278413309618e-09
aF-2.2816508938383569e-10
aF4.0288943308158687e-09
aF-1.8282991861754704e-09
aF-3.5783180352261267e-11
aF7.1456069607460749e-09
aF1.5220418371149351e-08
aF1
aa(lp66
F1
aF1
aF1
aF1
aF1
aF1
aF1
aF1
aF1.8724400824312282e-07
aF-1.352095750733516e-08
aF2.3875041179881803e-07
aF-1.0834416287667756e-07
aF-2.1204946923598528e-09
aF4.2344535853963441e-07
aF9.0195494234427467e-07
aF1
aa(lp67
F1
aF1
aF1
aF1
aF1
aF1
aF1
aF1
aF4.8159870074135809e-06
aF-3.4776416235742958e-07
aF6.1407512690328275e-06
aF-2.7866530183741908e-06
aF-5.4539928852807979e-08
aF1.0891175446471812e-05
aF2.3198623680189423e-05
aF1
aa(lp68
F1
aF1
aF1
aF1
aF1
aF1
aF1
aF1
aF1
aF1
aF1
aF1
aF1
aF1
aF1
aF-4.2052534649263104e-05
aa(lp69
F1
aF1
aF1
aF1
aF1
aF1
aF1
aF1
aF1
aF1
aF1
aF1
aF1
aF1
aF1
aF-4.5140910237559383e-05
aa(lp70
F1
aF1
aF1
aF1
aF1
aF1
aF1
aF1
aF1
aF1
aF1
aF1
aF1
aF1
aF1
aF-4.2451837459714386e-05
aa(lp71
F1
aF1
aF1
aF1
aF1
aF1
aF1
aF1
aF1
aF1
aF1
aF1
aF1
aF1
aF1
aF-4.6663204304560971e-05
aa(lp72
F1
aF1
aF1
aF1
aF1
aF1
aF1
aF1
aF1
aF1
aF1
aF1
aF1
aF1
aF1
aF-4.5474696571999631e-05
aa(lp73
F1
aF1
aF1
aF1
aF1
aF1
aF1
aF1
aF1
aF1
aF1
aF1
aF1
aF1
aF1
aF-3.8681593600629111e-05
aa(lp74
F1
aF1
aF1
aF1
aF1
aF1
aF1
aF1
aF1
aF1
aF1
aF1
aF1
aF1
aF1
aF-2.8831848314905114e-05
aa(lp75
F1
aF1
aF1
aF1
aF1
aF1
aF1
aF1
aF1
aF1
aF1
aF1
aF1
aF1
aF1
aF1
aasS'weights'
p76
(lp77
(lp78
F0
aF0
aF0
aF0
aF0
aF0
aF0
aF0
aF0.26557920209807573
aF0.65373084561066275
aF0.32403850547735819
aF1.4461128078129171
aF0.5546899164615321
aF0.2531026052943004
aF-7.152218632585253
aF0
aa(lp79
F0
aF0
aF0
aF0
aF0
aF0
aF0
aF0
aF0.78653921759018053
aF0.58523249689908052
aF1.0408712022476194
aF0.8020185481296177
aF0.72680455756787354
aF0.66577535595099757
aF0.61493921969292509
aF0
aa(lp80
F0
aF0
aF0
aF0
aF0
aF0
aF0
aF0
aF0.7723824096868509
aF0.67571237399806539
aF0.79520594275171519
aF0.63341295308408774
aF0.90417116285916654
aF0.56262100627064771
aF1.0457753547013451
aF0
aa(lp81
F0
aF0
aF0
aF0
aF0
aF0
aF0
aF0
aF0.82838649222092353
aF0.90051360886463239
aF0.81069292473024224
aF0.84636956375201278
aF0.84338352413270623
aF0.92689782219285599
aF0.79356732132743624
aF0
aa(lp82
F0
aF0
aF0
aF0
aF0
aF0
aF0
aF0
aF0.68872825265099569
aF0.7019389063570094
aF0.72281037064198717
aF0.79177540940760072
aF0.95825679761112736
aF0.72651347982998182
aF0.24673229837368676
aF0
aa(lp83
F0
aF0
aF0
aF0
aF0
aF0
aF0
aF0
aF0.97831109342107014
aF0.78025196925058782
aF0.78162170043605017
aF0.77243419782898781
aF1.0424404193730847
aF0.8051475117104826
aF1.0172396398122974
aF0
aa(lp84
F0
aF0
aF0
aF0
aF0
aF0
aF0
aF0
aF0.65925313809563657
aF0.57179856084074365
aF1.0078513861546099
aF0.82239712024314737
aF0.8023103740899854
aF0.93553287608810132
aF0.57075289980393418
aF0
aa(lp85
F0
aF0
aF0
aF0
aF0
aF0
aF0
aF0
aF-0.14332504652545575
aF0.67583116573805069
aF-0.059223843959578824
aF1.0706741694630917
aF0.76944436205846756
aF-0.96861827374614218
aF-2.4218914063890171
aF0
aa(lp86
F0
aF0
aF0
aF0
aF0
aF0
aF0
aF0
aF0
aF0
aF0
aF0
aF0
aF0
aF0
aF-1.2339834901251563
aa(lp87
F0
aF0
aF0
aF0
aF0
aF0
aF0
aF0
aF0
aF0
aF0
aF0
aF0
aF0
aF0
aF0.10302356413805899
aa(lp88
F0
aF0
aF0
aF0
aF0
aF0
aF0
aF0
aF0
aF0
aF0
aF0
aF0
aF0
aF0
aF-1.5987792591929566
aa(lp89
F0
aF0
aF0
aF0
aF0
aF0
aF0
aF0
aF0
aF0
aF0
aF0
aF0
aF0
aF0
aF0.90630708567113794
aa(lp90
F0
aF0
aF0
aF0
aF0
aF0
aF0
aF0
aF0
aF0
aF0
aF0
aF0
aF0
aF0
aF0.016467718907830081
aa(lp91
F0
aF0
aF0
aF0
aF0
aF0
aF0
aF0
aF0
aF0
aF0
aF0
aF0
aF0
aF0
aF-2.5030610885871409
aa(lp92
F0
aF0
aF0
aF0
aF0
aF0
aF0
aF0
aF0
aF0
aF0
aF0
aF0
aF0
aF0
aF-4.7334430679527877
aa(lp93
F0
aF0
aF0
aF0
aF0
aF0
aF0
aF0
aF0
aF0
aF0
aF0
aF0
aF0
aF0
aF0
aasS'NumNeurons'
p94
I16
sS'NumLayers'
p95
I3
sbsS'testDataOutputValues'
p96
(lp97
F0.00095537539264658046
aF0.062841764385705573
aF0.00867579763630698
aF0.0011350649426684451
aF0.0081329919418735141
aF0.00013789693717449177
aF0.0060833785048571287
aF0.0011163797208290831
aF0.0067222580044220444
aF0.036652713165837757
aF0.011951628445111133
aF0.011383441991012532
aF0.01076262549539973
aF0.017748095680045223
aF0.0034535895525692833
aF0.05164526803919587
aF0.0018262624405428452
aF0.020122987375828134
aF0.013442086307164244
aF0.00026308792349821731
aF0.07507061923884005
aF0.012137079894707531
aF0.041896409254690722
aF0.062432402317241557
aF0.027167316009267622
aF0.083209590451702148
aF0.081984462739767977
aF0.03845085559319382
aF0.055753369770761604
aF0.17901261557666112
aF0.26136477234019134
aF0.035530821304566064
aF0.056120067249359085
aF0.018903776650809764
aF0.011518754139165912
aF0.031285538902663015
aF0.0035558911421397906
aF0.036645083366920017
aF0.0036690924444499253
aF0.077253364570041519
aF0.14626878853554512
aF0.00013478273353459809
aF0.0063669270576898118
aF0.002994244515684967
aF0.021010223992833844
aF0.011418788202325326
aF0.0085440668223394772
aF0.011332213341136283
aF0.0049571270699099472
aF0.015105693891595443
aF0.00034654858104736773
aF0.0029736907716616688
aF0.0022141365038916023
aF0.0003300433017559313
aF0.025484400362269084
aF0.009283378766450235
asS'learning_rate'
p98
F0.00043945312500000001
sS'testErrors'
p99
(lp100
F8.2391793493187231e-05
aF0.012163739978934969
aF0.00092671219025960321
aF1.0908905053316689e-06
aF2.6093634258364562e-06
aF1.267148075477879e-05
aF0.0011730815629512096
aF8.9855322398011065e-05
aF0.00040307789631833569
aF0.0010849252346287299
aF0.066479068164434718
aF1.1632607683099915e-05
aF4.7732578155943838e-05
aF0.0040201248772328184
aF0.0071284884553153459
aF0.086343053052128999
aF6.2908057189014187e-05
aF1.4518599057986321e-05
aF0.0012923939284786748
aF4.7765049920761766e-05
aF0.012609500844033946
aF0.00085814849937561127
aF0.0072596560794071265
aF0.0069091699411310131
aF0.0093268124227428775
aF0.0093764476342932199
aF0.044766572046111418
aF0.0071456373685390246
aF0.0051776678477806612
aF0.21016125554420034
aF0.7729108161560756
aF0.0004338864304377316
aF0.003764721385090561
aF3.2985261389850123e-05
aF0.033923988532944024
aF0.0031327406316672681
aF0.00014794332173470893
aF0.001539260616074374
aF0.001103315383617285
aF0.0090302971757552572
aF0.03059704484004469
aF8.6528971445391111e-05
aF0.00059294581044139108
aF0.00029914282555035688
aF0.0041368515441244135
aF3.1275011247194163e-05
aF0.023081853941772836
aF0.0060102330517059349
aF1.724166695092569e-05
aF0.0014349430483666084
aF5.0053892219912288e-05
aF9.1863537758042548e-05
aF0.00024758003518351106
aF6.0040880875773793e-05
aF0.00097638653583981608
aF0.00034930210227425548
asS'fileName'
p101
S''
sS'learningRates'
p102
(lp103
F0.5
aF0.25
aF0.27500000000000002
aF0.30250000000000005
aF0.3327500000000001
aF0.36602500000000016
aF0.40262750000000019
aF0.44289025000000026
aF0.48717927500000036
aF0.53589720250000039
aF0.58948692275000047
aF0.64843561502500058
aF0.71327917652750072
aF0.78460709418025087
aF0.86306780359827606
aF0.90000000000000002
aF0.90000000000000002
aF0.90000000000000002
aF0.90000000000000002
aF0.90000000000000002
aF0.90000000000000002
aF0.90000000000000002
aF0.45000000000000001
aF0.49500000000000005
aF0.24750000000000003
aF0.27225000000000005
aF0.13612500000000002
aF0.14973750000000005
aF0.16471125000000006
aF0.18118237500000009
aF0.19930061250000011
aF0.21923067375000013
aF0.24115374112500015
aF0.26526911523750019
aF0.29179602676125022
aF0.32097562943737529
aF0.35307319238111284
aF0.38838051161922416
aF0.42721856278114662
aF0.46994041905926132
aF0.51693446096518747
aF0.56862790706170629
aF0.62549069776787702
aF0.68803976754466478
aF0.75684374429913137
aF0.83252811872904453
aF0.90000000000000002
aF0.90000000000000002
aF0.90000000000000002
aF0.90000000000000002
aF0.45000000000000001
aF0.22500000000000001
aF0.1125
aF0.056250000000000001
aF0.028125000000000001
aF0.0140625
aF0.0070312500000000002
aF0.0035156250000000001
aF0.0017578125
aF0.00087890625000000002
asS'netName'
p104
S'Network2'
p105
sS'validationErrors'
p106
(lp107
F0.043632008613702852
aF0.043539435777859729
aF0.04335512179152063
aF0.043133111199698794
aF0.04285711088808962
aF0.042499373577424907
aF0.042008378656250317
aF0.041277163506162201
aF0.040053173923011547
aF0.037744787701579401
aF0.03448401327716439
aF0.032945845628841161
aF0.032074868781188356
aF0.031187180277326556
aF0.030266654301407354
aF0.029396045894404556
aF0.028645055608825274
aF0.028058881216062287
aF0.027665669416154167
aF0.027454381666298624
aF0.027380408175864932
aF0.027385335387096168
aF0.027333993372997138
aF0.027368990257895028
aF0.027356047937994284
aF0.027369683005260392
aF0.027365282864147616
aF0.027360557067599045
aF0.027346698798361418
aF0.027323734281186136
aF0.027292121102644545
aF0.027252554095940268
aF0.027205866319873089
aF0.027152978486926476
aF0.027094873050823292
aF0.02703257983326865
aF0.026967165547894714
aF0.026899722700639693
aF0.02683135534914351
aF0.026763160674823545
aF0.026696206520731763
aF0.026631506042299982
aF0.026569991360119113
aF0.02651248850738204
aF0.026459695966964479
aF0.026412168699684168
aF0.026374593799896765
aF0.026362852791052202
aF0.026357924671184092
aF0.026358098347865566
aF0.026558838937199566
aF0.026728983217554989
aF0.026839560404948819
aF0.02690310741765678
aF0.026937685777478303
aF0.026956351949534767
aF0.026966840126592364
aF0.026973348278790422
aF0.026978049889646361
aF0.026982031339331757
asS'testDataPredictions'
p108
(lp109
F0.0082703051358890521
aF0.031433016016820435
aF0.011439046074376978
aF0.0069290876769824835
aF0.017058596006817233
aF0.0085529541728880179
aF0.011922088272318786
aF0.010104091150563899
aF0.010957422716781427
aF0.021060157039911032
aF0.065214632896131275
aF0.01628474632951225
aF0.017482781519965972
aF0.018724507077394328
aF0.017258898472922366
aF0.098829235910080984
aF0.0076749978710950071
aF0.014499258650066403
aF0.045860460164844186
aF0.010661910948612631
aF0.044263280827040549
aF0.011325569707886887
aF0.022293649226463423
aF0.031348549727047231
aF0.027355493754518297
aF0.041813470527479364
aF0.074970393087819262
aF0.032918387562744879
aF0.054839971311282369
aF0.11587979610005555
aF0.12084653435473762
aF0.030381207330858119
aF0.029541233799084559
aF0.025846647564813377
aF0.036295913906325403
aF0.024501314520723117
aF0.01094537903021795
aF0.029037343604989919
aF0.0093468129557111746
aF0.03439026827783391
aF0.058608976066834774
aF0.0081884560359962617
aF0.01318308701625877
aF0.0090516003107442809
aF0.023954924707003496
aF0.011365615646334638
aF0.026000960500288044
aF0.017511643027092839
aF0.013175339971210254
aF0.015348509877997598
aF0.0080270793062441025
aF0.017445980205167067
aF0.007601235069051593
aF0.0089104535749159434
aF0.025395134753169651
aF0.010254966501300146
asS'weightDecayFactor'
p110
F0.025000000000000001
sS'momentum'
p111
F0.80000000000000004
sS'trainingErrors'
p112
(lp113
F0.030786077734484971
aF0.030677779688727209
aF0.0305568638247419
aF0.030411480018689679
aF0.030230895983387501
aF0.029996751065392173
aF0.029674782283805833
aF0.029193488778062781
aF0.028383373646129188
aF0.026849350962138432
aF0.024750761546676891
aF0.024039500039474363
aF0.023829418763900913
aF0.023623970841404284
aF0.023405343353048707
aF0.023178272956530386
aF0.022953597970697855
aF0.022740109343334432
aF0.022539644594840529
aF0.022350390370846462
aF0.02216685803305431
aF0.02198119613260675
aF0.021784426862933449
aF0.021633108218973088
aF0.021468285574399427
aF0.021325494235829454
aF0.021175025862366807
aF0.021035376922165894
aF0.02088858472927848
aF0.020735196375668549
aF0.020575957976214965
aF0.020411789098101627
aF0.020243753846395273
aF0.020073031789550545
aF0.019900889407532794
aF0.019728651575010879
aF0.01955767231408069
aF0.019389304343605553
aF0.019224867554068492
aF0.019065617226680067
aF0.018912713411328622
aF0.018767193242770257
aF0.018629948026945297
aF0.018501706654442136
aF0.018383026349498465
aF0.018274291050375247
aF0.018174653067418868
aF0.018080191749689948
aF0.017997910320658946
aF0.017926280857633474
aF0.017822776727024377
aF0.017759310892992181
aF0.017716456552151004
aF0.017684496404735101
aF0.017658573536201618
aF0.017636242566038948
aF0.017616252746200531
aF0.017597946353914252
aF0.017580961500514868
aF0.017565085186221921
asb.