(i__main__
NN
p1
(dp2
S'exitCounter'
p3
I11
sS'Network'
p4
(i__main__
Layers
p5
(dp6
S'layers'
p7
(lp8
(i__main__
Layer
p9
(dp10
S'Neurons'
p11
(lp12
(i__main__
Neuron
p13
(dp14
S'activation'
p15
F0.028948644255788161
sS'delta'
p16
F0
sS'bias'
p17
F1
sS'S'
F0
sS'n'
I0
sba(i__main__
Neuron
p18
(dp19
g15
F9.909354630078996e-05
sg16
F0
sg17
F1
sS'S'
F0
sS'n'
I1
sba(i__main__
Neuron
p20
(dp21
g15
F0.00029871316659873577
sg16
F0
sg17
F1
sS'S'
F0
sS'n'
I2
sba(i__main__
Neuron
p22
(dp23
g15
F2.8276851050005433e-05
sg16
F0
sg17
F1
sS'S'
F0
sS'n'
I3
sba(i__main__
Neuron
p24
(dp25
g15
F0.009266959383978212
sg16
F0
sg17
F1
sS'S'
F0
sS'n'
I4
sba(i__main__
Neuron
p26
(dp27
g15
F0.00010812469916918375
sg16
F0
sg17
F1
sS'S'
F0
sS'n'
I5
sba(i__main__
Neuron
p28
(dp29
g15
F0.011241356252447755
sg16
F0
sg17
F1
sS'S'
F0
sS'n'
I6
sba(i__main__
Neuron
p30
(dp31
g15
F0.25287140834164618
sg16
F0
sg17
F1
sS'S'
F0
sS'n'
I7
sbasS'name'
p32
S'Input'
p33
sba(i__main__
Layer
p34
(dp35
g11
(lp36
(i__main__
Neuron
p37
(dp38
g15
F0.76940240464467158
sg16
F3.3846136564494204e-05
sg17
F1
sS'S'
F1.2049399356571624
sS'n'
I8
sba(i__main__
Neuron
p39
(dp40
g15
F0.66316244739692243
sg16
F0.00027526271409353487
sg17
F1
sS'S'
F0.67741920449153592
sS'n'
I9
sba(i__main__
Neuron
p41
(dp42
g15
F0.78796475515073816
sg16
F-1.0621641287856121e-05
sg17
F1
sS'S'
F1.3127008517484282
sS'n'
I10
sba(i__main__
Neuron
p43
(dp44
g15
F0.72681423728235661
sg16
F0.00014944972630189003
sg17
F1
sS'S'
F0.97851891202691132
sS'n'
I11
sba(i__main__
Neuron
p45
(dp46
g15
F0.80091830131129493
sg16
F-6.3906702717148069e-05
sg17
F1
sS'S'
F1.3920436593525107
sS'n'
I12
sba(i__main__
Neuron
p47
(dp48
g15
F0.71081623453041676
sg16
F0.00019433654253577456
sg17
F1
sS'S'
F0.89935158310884922
sS'n'
I13
sba(i__main__
Neuron
p49
(dp50
g15
F0.80296001245383875
sg16
F-8.6597962424766399e-05
sg17
F1
sS'S'
F1.4048982244077979
sS'n'
I14
sba(i__main__
Neuron
p51
(dp52
g15
F0.67900779239925391
sg16
F0.00024492749471208633
sg17
F1
sS'S'
F0.74921575633212489
sS'n'
I15
sbasg32
S'Hidden'
p53
sba(i__main__
Layer
p54
(dp55
g11
(lp56
(i__main__
Neuron
p57
(dp58
g15
F0.017115669512576401
sg16
F-0.00038060489966145676
sg17
F1
sS'S'
F-4.0504970536377876
sS'n'
I16
sbasg32
S'Output'
p59
sbasS'changes'
p60
(lp61
(lp62
F1
aF1
aF1
aF1
aF1
aF1
aF1
aF1
aF1.4649127210055072e-06
aF1.1913792604534066e-05
aF-4.5972093183777163e-07
aF6.4684134566807903e-06
aF-2.7659801463448488e-06
aF8.4111837336120002e-06
aF-3.748092681936296e-06
aF1.0600837766049067e-05
aF1
aa(lp63
F1
aF1
aF1
aF1
aF1
aF1
aF1
aF1
aF8.1022162847520436e-09
aF6.5893430420454031e-08
aF-2.5426486963815333e-09
aF3.5775841177251492e-08
aF-1.5298228395227256e-08
aF4.6521017152295199e-08
aF-2.0730148034689674e-08
aF5.8631670780456223e-08
aF1
aa(lp64
F1
aF1
aF1
aF1
aF1
aF1
aF1
aF1
aF1.1663766405327683e-08
aF9.4858684717697562e-08
aF-3.660339270529947e-09
aF5.1502087796750919e-08
aF-2.202298187880854e-08
aF6.6970598899436754e-08
aF-2.9842649927714538e-08
aF8.4404820595115319e-08
aF1
aa(lp65
F1
aF1
aF1
aF1
aF1
aF1
aF1
aF1
aF5.2368437312993752e-10
aF4.2590025482358093e-09
aF-1.6434335271450558e-10
aF2.3123610011946895e-09
aF-9.8879650525132516e-10
aF3.0068722987086192e-09
aF-1.3398870379290922e-09
aF3.7896408438279249e-09
aF1
aa(lp66
F1
aF1
aF1
aF1
aF1
aF1
aF1
aF1
aF3.478021222103186e-07
aF2.8285933298376823e-06
aF-1.0914774199512266e-07
aF1.5357419560280437e-06
aF-6.5670380978740188e-07
aF1.9969978490207725e-06
aF-8.8987867353874099e-07
aF2.5168693119876986e-06
aF1
aa(lp67
F1
aF1
aF1
aF1
aF1
aF1
aF1
aF1
aF4.5530757464780573e-09
aF3.702910035421133e-08
aF-1.4288525144775374e-09
aF2.0104389842140555e-08
aF-8.59690610845287e-09
aF2.6142688303227301e-08
aF-1.1649397019340847e-08
aF3.2948322881527618e-08
aF1
aa(lp68
F1
aF1
aF1
aF1
aF1
aF1
aF1
aF1
aF4.9014003121032752e-07
aF3.986194259417415e-06
aF-1.5381642103861501e-07
aF2.1642438679641356e-06
aF-9.2545963716258415e-07
aF2.8142685899256971e-06
aF-1.2540612404829748e-06
aF3.5468972854167568e-06
aF1
aa(lp69
F1
aF1
aF1
aF1
aF1
aF1
aF1
aF1
aF1.3104480440844958e-05
aF0.00010657567507177997
aF-4.1124661374911015e-06
aF5.7863650448874136e-05
aF-2.474327119137993e-05
aF7.5242839481805111e-05
aF-3.3528828398182545e-05
aF9.4830544625489874e-05
aF1
aa(lp70
F1
aF1
aF1
aF1
aF1
aF1
aF1
aF1
aF1
aF1
aF1
aF1
aF1
aF1
aF1
aF1
aF-0.00029111345631307447
aa(lp71
F1
aF1
aF1
aF1
aF1
aF1
aF1
aF1
aF1
aF1
aF1
aF1
aF1
aF1
aF1
aF1
aF-0.00022862107922852316
aa(lp72
F1
aF1
aF1
aF1
aF1
aF1
aF1
aF1
aF1
aF1
aF1
aF1
aF1
aF1
aF1
aF1
aF-0.00030106717054535222
aa(lp73
F1
aF1
aF1
aF1
aF1
aF1
aF1
aF1
aF1
aF1
aF1
aF1
aF1
aF1
aF1
aF1
aF-0.00026703492541231181
aa(lp74
F1
aF1
aF1
aF1
aF1
aF1
aF1
aF1
aF1
aF1
aF1
aF1
aF1
aF1
aF1
aF1
aF-0.00030769210030873352
aa(lp75
F1
aF1
aF1
aF1
aF1
aF1
aF1
aF1
aF1
aF1
aF1
aF1
aF1
aF1
aF1
aF1
aF-0.00025747277603608453
aa(lp76
F1
aF1
aF1
aF1
aF1
aF1
aF1
aF1
aF1
aF1
aF1
aF1
aF1
aF1
aF1
aF1
aF-0.00030877632154738629
aa(lp77
F1
aF1
aF1
aF1
aF1
aF1
aF1
aF1
aF1
aF1
aF1
aF1
aF1
aF1
aF1
aF1
aF-0.00023837506132083131
aa(lp78
F1
aF1
aF1
aF1
aF1
aF1
aF1
aF1
aF1
aF1
aF1
aF1
aF1
aF1
aF1
aF1
aF1
aasS'weights'
p79
(lp80
(lp81
F0
aF0
aF0
aF0
aF0
aF0
aF0
aF0
aF0.37698793939807512
aF-1.6145764881869815
aF0.78321468386427673
aF-0.50725660877892098
aF1.6455471856488502
aF-0.37399503898670572
aF1.905608655455489
aF-0.87034973689406914
aF0
aa(lp82
F0
aF0
aF0
aF0
aF0
aF0
aF0
aF0
aF1.119087767459493
aF0.93328657394217474
aF0.90755738614251846
aF0.93820485349178717
aF1.1480989329436726
aF0.66525665101103493
aF0.95321746085505421
aF0.85291748707335358
aF0
aa(lp83
F0
aF0
aF0
aF0
aF0
aF0
aF0
aF0
aF1.0020237230474527
aF0.8759090151358
aF0.84673257342970976
aF0.6665643409857458
aF1.0631525302458849
aF1.1302208155287172
aF0.84162135553469708
aF0.93664026933248612
aF0
aa(lp84
F0
aF0
aF0
aF0
aF0
aF0
aF0
aF0
aF0.83492760580491365
aF0.65254240416590603
aF1.0573858983116349
aF0.68201095524502231
aF1.1028606299439963
aF0.90004515003009433
aF0.69994052028138565
aF0.97644197970764213
aF0
aa(lp85
F0
aF0
aF0
aF0
aF0
aF0
aF0
aF0
aF0.94005260495851706
aF0.76302281953182471
aF0.88862162860112281
aF0.69342842339590272
aF0.93603897396148783
aF0.99636717023992938
aF0.87509713753211094
aF0.57437578853817783
aF0
aa(lp86
F0
aF0
aF0
aF0
aF0
aF0
aF0
aF0
aF0.72727198251662128
aF0.94222707079763246
aF0.65668397273877488
aF1.0441863752868237
aF1.0905939100584592
aF1.1140369035301112
aF0.76524118280389952
aF0.77521550939872308
aF0
aa(lp87
F0
aF0
aF0
aF0
aF0
aF0
aF0
aF0
aF1.1302207912221993
aF1.1103556526739251
aF1.0748547682788563
aF1.0430830331651701
aF1.0774410186522625
aF0.88253700245553202
aF0.71329360813267151
aF0.9553701423690325
aF0
aa(lp88
F0
aF0
aF0
aF0
aF0
aF0
aF0
aF0
aF0.68057336307707561
aF-1.1700344459645444
aF1.0648354347242468
aF-0.10033798241000276
aF1.2774900708804044
aF-0.43312692031218525
aF1.3174963815707084
aF-0.95751002305330823
aF0
aa(lp89
F0
aF0
aF0
aF0
aF0
aF0
aF0
aF0
aF0
aF0
aF0
aF0
aF0
aF0
aF0
aF0
aF-0.53328841460031984
aa(lp90
F0
aF0
aF0
aF0
aF0
aF0
aF0
aF0
aF0
aF0
aF0
aF0
aF0
aF0
aF0
aF0
aF-3.0673948415354526
aa(lp91
F0
aF0
aF0
aF0
aF0
aF0
aF0
aF0
aF0
aF0
aF0
aF0
aF0
aF0
aF0
aF0
aF0.18547018175178312
aa(lp92
F0
aF0
aF0
aF0
aF0
aF0
aF0
aF0
aF0
aF0
aF0
aF0
aF0
aF0
aF0
aF0
aF-1.9619989087496457
aa(lp93
F0
aF0
aF0
aF0
aF0
aF0
aF0
aF0
aF0
aF0
aF0
aF0
aF0
aF0
aF0
aF0
aF1.2095130454584573
aa(lp94
F0
aF0
aF0
aF0
aF0
aF0
aF0
aF0
aF0
aF0
aF0
aF0
aF0
aF0
aF0
aF0
aF-2.419543799033923
aa(lp95
F0
aF0
aF0
aF0
aF0
aF0
aF0
aF0
aF0
aF0
aF0
aF0
aF0
aF0
aF0
aF0
aF1.6625303898545845
aa(lp96
F0
aF0
aF0
aF0
aF0
aF0
aF0
aF0
aF0
aF0
aF0
aF0
aF0
aF0
aF0
aF0
aF-2.8128592719612429
aa(lp97
F0
aF0
aF0
aF0
aF0
aF0
aF0
aF0
aF0
aF0
aF0
aF0
aF0
aF0
aF0
aF0
aF0
aasS'NumNeurons'
p98
I17
sS'NumLayers'
p99
I3
sbsS'testDataOutputValues'
p100
(lp101
F0.00038341915212298117
aF0.0024146500621343319
aF0.034666921116803577
aF0.0083387748624524274
aF0.0055981313859593349
aF0.037087270085533114
aF0.013615303780577615
aF0.0052228714133243518
aF0.013558314091787406
aF0.16484164714276747
aF0.031729616501124602
aF0.0047831476943529013
aF0.018000084207715022
aF0.0043079222020367307
aF0.07714961991926024
aF0.01147694477468706
aF0.0033166753199644038
aF0.0085425986401201429
aF4.3349533768290263e-05
aF0.019512958022703197
aF0.022121715525411298
aF0.016551051300934455
aF0.0039887176609986735
aF0.0217462998432441
aF0.018402749058019613
aF0.073900740529621686
aF0.11050057749551308
aF0.0078018883953796369
aF0.00095954442131362038
aF0.062845675161514375
aF0.0086799344475326137
aF0.0011392332214882144
aF0.0081371310182357052
aF0.00014206937719176739
aF0.0060875261342878866
aF0.0011205480776225721
aF0.0067264029677987711
aF0.036656733228962277
aF0.011955751586244146
aF0.011387567503196404
aF0.010766753598260438
aF0.017752194632430832
aF0.0034577481561500032
aF0.051649225538157061
aF0.0018304278349847679
aF0.020127076417753978
aF0.013446203228593552
aF0.00026725984109157117
aF0.075074478983448448
aF0.012141202261948777
aF0.04190040743579037
aF0.062436314801324604
aF0.027171375655101148
aF0.083213416232257836
aF0.081988293632800566
aF0.038454868152642187
aF0.05575731012655074
aF0.17901604156971154
aF0.26136785467641815
aF0.035534846049362662
aF0.056124006074913975
aF0.018907870780520815
aF0.011522879086690098
aF0.031289581363088723
aF0.003560049318814395
aF0.036649103461883804
aF0.0036732501487337452
aF0.0772572152060199
aF0.1462723511690921
aF0.00013895518654749364
aF0.0063710735038680737
aF0.0029984050361196285
aF0.021014309332307562
aF0.011422913567008912
aF0.008548204183279836
aF0.011336339067098102
aF0.0049612793992053579
aF0.015109803870764577
aF0.00035072015035810704
aF0.0029778513778674219
aF0.0022183002797290605
aF0.00033421493994345634
aF0.025488467030935626
aF0.0092875130422304178
asS'learning_rate'
p102
F0.00024169921875000002
sS'testErrors'
p103
(lp104
F0.00022290151001473226
aF0.00035790196791530285
aF0.00097077380668335442
aF0.00038949196317019958
aF0.00014961891940857327
aF0.05734858496070179
aF0.0018192924859421328
aF6.3916986704674078e-06
aF0.0018410362238051225
aF0.11208243419042857
aF0.00010897847137244739
aF0.0008572681803989627
aF0.0058478311809074483
aF0.00081059355909107299
aF0.061552777269202164
aF0.00051854598257006896
aF0.0016675546828722116
aF0.0003250651277592579
aF0.00011318314012058132
aF0.049211845337298721
aF0.0005889847169323211
aF9.4667789901573431e-06
aF0.001392982494190005
aF0.00011956108225204049
aF1.0656611981780193e-05
aF0.0050710457011524717
aF0.076152272831025339
aF2.6792974864859801e-05
aF3.6376134315913275e-06
aF0.013197940483884622
aF0.00058000708701654979
aF3.8186220814213401e-05
aF2.7250662524975228e-05
aF0.000125988898671442
aF0.00079031727734969737
aF4.8206670565772532e-06
aF0.0001760034964435301
aF0.00083576946735648586
aF0.082424997623993829
aF1.1542961619926158e-05
aF0.00019829298497153248
aF0.0036316140223771214
aF0.0066885979106384016
aF0.11078023153756383
aF6.4328472529798441e-07
aF1.1420723078659174e-05
aF0.0013150193452716957
aF0.00022062270416625082
aF0.015185567878296431
aF0.00052447564690808867
aF0.0071295783229786639
aF0.0074188281639592383
aF0.0097155227849533843
aF0.011171473664707186
aF0.058832580137705377
aF0.0077944973780253307
aF0.0072692907223974234
aF0.23069562096877441
aF0.56692646782344169
aF0.00038385790182917669
aF0.0038646070730502555
aF0.00010965421367689076
aF0.038111150416473609
aF0.0029727185247177129
aF2.5205047713511029e-05
aF0.001486602579146831
aF0.00072155748699222579
aF0.010027903813714059
aF0.038670615185814022
aF4.6501184961580088e-06
aF0.00032372211561817451
aF0.00010742359870051274
aF0.0039807042864763529
aF3.2291071459458009e-06
aF0.024384624258611903
aF0.005564693356484649
aF0.00014052450259767463
aF0.0010584749991041705
aF1.9390531119322518e-08
aF0.00028661422990680418
aF7.8729409253206937e-05
aF2.0271599667479167e-07
aF0.00081984509471559814
aF0.00014001929127348739
asS'fileName'
p105
S''
sS'learningRates'
p106
(lp107
F0.5
aF0.25
aF0.27500000000000002
aF0.30250000000000005
aF0.3327500000000001
aF0.36602500000000016
aF0.40262750000000019
aF0.44289025000000026
aF0.48717927500000036
aF0.53589720250000039
aF0.58948692275000047
aF0.64843561502500058
aF0.71327917652750072
aF0.78460709418025087
aF0.86306780359827606
aF0.90000000000000002
aF0.90000000000000002
aF0.90000000000000002
aF0.90000000000000002
aF0.90000000000000002
aF0.90000000000000002
aF0.90000000000000002
aF0.90000000000000002
aF0.90000000000000002
aF0.90000000000000002
aF0.90000000000000002
aF0.90000000000000002
aF0.90000000000000002
aF0.90000000000000002
aF0.90000000000000002
aF0.90000000000000002
aF0.90000000000000002
aF0.90000000000000002
aF0.90000000000000002
aF0.90000000000000002
aF0.90000000000000002
aF0.45000000000000001
aF0.49500000000000005
aF0.24750000000000003
aF0.12375000000000001
aF0.061875000000000006
aF0.030937500000000003
aF0.015468750000000002
aF0.0077343750000000008
aF0.0038671875000000004
aF0.0019335937500000002
aF0.0009667968750000001
aF0.00048339843750000005
asS'netName'
p108
S'Network1'
p109
sS'validationErrors'
p110
(lp111
F0.042148778964802812
aF0.042131436452041246
aF0.042045628781853188
aF0.041951855228670384
aF0.041848641520422232
aF0.041734013713320785
aF0.041605398723505653
aF0.041459368935038536
aF0.041291241273338476
aF0.041094423022613999
aF0.040859295235674019
aF0.04057120327267736
aF0.040206608680527965
aF0.039725175643682338
aF0.039052251264278366
aF0.03808270619554998
aF0.036619080026188661
aF0.034510086826893487
aF0.032570075464058108
aF0.031709679152870013
aF0.031282308328767661
aF0.030908892886690943
aF0.030534297746882145
aF0.030155801136765865
aF0.029776845324458779
aF0.029402237912498401
aF0.029037789245672178
aF0.028690274076715521
aF0.02836725331947591
aF0.028076679679150226
aF0.027826276270934199
aF0.027622732247184992
aF0.027470830048573504
aF0.027372681999149613
aF0.027327272531653537
aF0.027330449949681819
aF0.027274546875725905
aF0.027336040173758062
aF0.027336955550219855
aF0.027366651609035484
aF0.027412287106310711
aF0.027466755179027216
aF0.027526027084188137
aF0.02758767950721229
aF0.027650121143596874
aF0.027712210911294152
aF0.027773076037280246
aF0.027832025606794528
asS'testDataPredictions'
p112
(lp113
F0.018591302694541473
aF0.025264145732368327
aF0.030524658871862554
aF0.019477465875283942
aF0.016607766313026167
aF0.035543886342389544
aF0.020766455480550606
aF0.021677551003107129
aF0.017553841360206185
aF0.064887207724232815
aF0.038285496191443072
aF0.017028000494683258
aF0.019177266099219419
aF0.015245211488759697
aF0.044161369832133798
aF0.018808196765992061
aF0.017725779561181067
aF0.018514592631294232
aF0.015573876709744531
aF0.027810791051207439
aF0.019101453796355645
aF0.02138116822434797
aF0.047393101264250732
aF0.023130860449538798
aF0.043210862543936399
aF0.029366868166240612
aF0.081884419737613331
aF0.017908430186494618
aF0.015444145447100507
aF0.026843654559834295
aF0.017801655898793557
aF0.014157184502900915
aF0.023898260223426566
aF0.016221881667632151
aF0.018063764710618418
aF0.017391785426374481
aF0.017771635240154952
aF0.025092630243334895
aF0.035955268439864185
aF0.023096991474213225
aF0.024659687843909182
aF0.021869917749825343
aF0.019909174800375719
aF0.059837010821926176
aF0.014808515400450271
aF0.021693139238545905
aF0.046177906502144685
aF0.018608215438084622
aF0.033329098109016506
aF0.017722311687420181
aF0.023064158696673213
aF0.028341042291608068
aF0.025367221580402281
aF0.032953931641245382
aF0.044000211481913652
aF0.029167491661393291
aF0.041539492890292684
aF0.094007212657691255
aF0.24705480423642937
aF0.031622815464020168
aF0.028736388989262857
aF0.030579047806870666
aF0.025263052114216377
aF0.025953400343616422
aF0.018092188090088904
aF0.029718158146381384
aF0.015705177834631521
aF0.029282355135718991
aF0.036883828596745973
aF0.015338237725400918
aF0.019545302719098299
aF0.015986873634495344
aF0.025184267438833615
aF0.018759096125728902
aF0.021775755464496845
aF0.020444240002278333
aF0.020881469830140578
aF0.020698890152264292
aF0.015245316729313924
aF0.024795258467283011
aF0.014467027463798869
aF0.016212922231786907
aF0.028013318610746532
aF0.017115669512576401
asS'weightDecayFactor'
p114
F0.029999999999999999
sS'momentum'
p115
F0.90000000000000002
sS'trainingErrors'
p116
(lp117
F0.031051025548367559
aF0.030995942003778788
aF0.030941771383182926
aF0.030882790004980093
aF0.03081802222201235
aF0.030746216182645038
aF0.030665728083173412
aF0.030574352211013532
aF0.030469053095382958
aF0.030345526782170507
aF0.030197449081647464
aF0.03001511740602255
aF0.029782839972659059
aF0.029473547940312712
aF0.029036834400336907
aF0.028389650260899377
aF0.027395883534304704
aF0.025963262199962353
aF0.024691843451807974
aF0.024243464108258252
aF0.024100850272906156
aF0.023987208863699296
aF0.023871418398844092
aF0.023753344982181061
aF0.023634178853454414
aF0.023514893247253216
aF0.023396444316419743
aF0.023279859481103466
aF0.023166237425749074
aF0.023056707946543749
aF0.022952369455435342
aF0.022854213754948692
aF0.022763048308522115
aF0.022679428248675974
aF0.022603610450850471
aF0.022535538768154256
aF0.022425016802356507
aF0.022388261134150617
aF0.022320080128071351
aF0.022275324307414867
aF0.022242634487816298
aF0.022216434192217735
aF0.022193924242349106
aF0.022173667221576678
aF0.022154898657326866
aF0.022137188704618182
aF0.022120275562553707
aF0.022103983387412901
asb.