(i__main__
NN
p1
(dp2
S'exitCounter'
p3
I11
sS'Network'
p4
(i__main__
Layers
p5
(dp6
S'layers'
p7
(lp8
(i__main__
Layer
p9
(dp10
S'Neurons'
p11
(lp12
(i__main__
Neuron
p13
(dp14
S'activation'
p15
F0.028948644255788161
sS'delta'
p16
F0
sS'bias'
p17
F1
sS'S'
F0
sS'n'
I0
sba(i__main__
Neuron
p18
(dp19
g15
F9.909354630078996e-05
sg16
F0
sg17
F1
sS'S'
F0
sS'n'
I1
sba(i__main__
Neuron
p20
(dp21
g15
F0.00029871316659873577
sg16
F0
sg17
F1
sS'S'
F0
sS'n'
I2
sba(i__main__
Neuron
p22
(dp23
g15
F2.8276851050005433e-05
sg16
F0
sg17
F1
sS'S'
F0
sS'n'
I3
sba(i__main__
Neuron
p24
(dp25
g15
F0.009266959383978212
sg16
F0
sg17
F1
sS'S'
F0
sS'n'
I4
sba(i__main__
Neuron
p26
(dp27
g15
F0.00010812469916918375
sg16
F0
sg17
F1
sS'S'
F0
sS'n'
I5
sba(i__main__
Neuron
p28
(dp29
g15
F0.011241356252447755
sg16
F0
sg17
F1
sS'S'
F0
sS'n'
I6
sba(i__main__
Neuron
p30
(dp31
g15
F0.25287140834164618
sg16
F0
sg17
F1
sS'S'
F0
sS'n'
I7
sbasS'name'
p32
S'Input'
p33
sba(i__main__
Layer
p34
(dp35
g11
(lp36
(i__main__
Neuron
p37
(dp38
g15
F0.57444457360001533
sg16
F0.000381001911756357
sg17
F1
sS'S'
F0.30000841366215136
sS'n'
I8
sba(i__main__
Neuron
p39
(dp40
g15
F0.78431440092463156
sg16
F-2.31704890666285e-05
sg17
F1
sS'S'
F1.2909881740586591
sS'n'
I9
sba(i__main__
Neuron
p41
(dp42
g15
F0.75629455667710044
sg16
F7.3289640419202907e-05
sg17
F1
sS'S'
F1.132470628984976
sS'n'
I10
sba(i__main__
Neuron
p43
(dp44
g15
F0.77650938306101114
sg16
F4.056234900108074e-06
sg17
F1
sS'S'
F1.2454392955068059
sS'n'
I11
sba(i__main__
Neuron
p45
(dp46
g15
F0.77809254914268444
sg16
F4.5999373122848077e-06
sg17
F1
sS'S'
F1.2545850679502282
sS'n'
I12
sba(i__main__
Neuron
p47
(dp48
g15
F0.70916695987035916
sg16
F0.00019470343421506374
sg17
F1
sS'S'
F0.89134162796981675
sS'n'
I13
sbasg32
S'Hidden'
p49
sba(i__main__
Layer
p50
(dp51
g11
(lp52
(i__main__
Neuron
p53
(dp54
g15
F0.014320008489365437
sg16
F-0.00033736861007144491
sg17
F1
sS'S'
F-4.2316739953386078
sS'n'
I14
sbasg32
S'Output'
p55
sbasS'changes'
p56
(lp57
(lp58
F1
aF1
aF1
aF1
aF1
aF1
aF1
aF1
aF1.6575349106467696e-05
aF-1.0080236696884558e-06
aF3.1884390559504973e-06
aF1.764650188162938e-07
aF2.0011859380838199e-07
aF8.4705018393887399e-06
aF1
aa(lp59
F1
aF1
aF1
aF1
aF1
aF1
aF1
aF1
aF9.167581216967801e-08
aF-5.5752303020205782e-09
aF1.7634786340260358e-08
aF9.7600200246815677e-10
aF1.106826438453637e-09
aF4.6849096849954638e-08
aF1
aa(lp60
F1
aF1
aF1
aF1
aF1
aF1
aF1
aF1
aF1.3197441546681014e-07
aF-8.0259748213648961e-09
aF2.5386637588008437e-08
aF1.4050302988510039e-09
aF1.5933621833398273e-09
aF6.7442894975145294e-08
aF1
aa(lp61
F1
aF1
aF1
aF1
aF1
aF1
aF1
aF1
aF5.9254392304493971e-09
aF-3.6035337531822392e-10
aF1.1398192427002406e-09
aF6.3083603161519703e-11
aF7.1539402209746478e-11
aF3.0280776337388354e-09
aF1
aa(lp62
F1
aF1
aF1
aF1
aF1
aF1
aF1
aF1
aF3.9353481698550289e-06
aF-2.3932673020631114e-07
aF7.5700473775439268e-07
aF4.1896631219137356e-08
aF4.7512504070908613e-08
aF2.0110812567069895e-06
aF1
aa(lp63
F1
aF1
aF1
aF1
aF1
aF1
aF1
aF1
aF5.1517622124452219e-08
aF-3.1330249621861691e-09
aF9.9099450271734172e-09
aF5.4846857819814156e-10
aF6.2198594006530761e-10
aF2.6327054118928401e-08
aF1
aa(lp64
F1
aF1
aF1
aF1
aF1
aF1
aF1
aF1
aF5.5458881692212495e-06
aF-3.3727111918498473e-07
aF1.0668086883177043e-06
aF5.9042814353322908e-08
aF6.6956981401377606e-08
aF2.8341156277729711e-06
aF1
aa(lp65
F1
aF1
aF1
aF1
aF1
aF1
aF1
aF1
aF0.00014827595873206039
aF-9.0173470910090292e-06
aF2.8522407271369708e-05
aF1.5785803170472749e-06
aF1.7901750464773799e-06
aF7.5773473795913399e-05
aF1
aa(lp66
F1
aF1
aF1
aF1
aF1
aF1
aF1
aF1
aF1
aF1
aF1
aF1
aF1
aF1
aF-0.00015584238818809983
aa(lp67
F1
aF1
aF1
aF1
aF1
aF1
aF1
aF1
aF1
aF1
aF1
aF1
aF1
aF1
aF-0.00026646597806732588
aa(lp68
F1
aF1
aF1
aF1
aF1
aF1
aF1
aF1
aF1
aF1
aF1
aF1
aF1
aF1
aF-0.00025293484732265059
aa(lp69
F1
aF1
aF1
aF1
aF1
aF1
aF1
aF1
aF1
aF1
aF1
aF1
aF1
aF1
aF-0.00026285533171019809
aa(lp70
F1
aF1
aF1
aF1
aF1
aF1
aF1
aF1
aF1
aF1
aF1
aF1
aF1
aF1
aF-0.00026361779503240325
aa(lp71
F1
aF1
aF1
aF1
aF1
aF1
aF1
aF1
aF1
aF1
aF1
aF1
aF1
aF1
aF-0.00022854777721800746
aa(lp72
F1
aF1
aF1
aF1
aF1
aF1
aF1
aF1
aF1
aF1
aF1
aF1
aF1
aF1
aF1
aasS'weights'
p73
(lp74
(lp75
F0
aF0
aF0
aF0
aF0
aF0
aF0
aF0
aF-4.414801996710966
aF1.2525778409586787
aF0.27469290499761029
aF0.94385747609904336
aF1.0106037528864553
aF0.1392052919346603
aF0
aa(lp76
F0
aF0
aF0
aF0
aF0
aF0
aF0
aF0
aF1.1007211362352085
aF0.95146201390796314
aF0.74436785344597178
aF1.0922896264341899
aF0.90386553078696419
aF0.99266246006765957
aF0
aa(lp77
F0
aF0
aF0
aF0
aF0
aF0
aF0
aF0
aF0.76421980620031427
aF0.7891029097123019
aF1.0668428582772498
aF1.128625108607999
aF0.83195074305434791
aF0.97505538858470675
aF0
aa(lp78
F0
aF0
aF0
aF0
aF0
aF0
aF0
aF0
aF1.0610904319637129
aF0.78842279120004477
aF0.98797747451574225
aF0.98642340471691359
aF0.65454568421014858
aF1.1087024130732834
aF0
aa(lp79
F0
aF0
aF0
aF0
aF0
aF0
aF0
aF0
aF0.63565829904726334
aF1.1567651922135189
aF0.91585577571618293
aF0.83104438183669982
aF0.8562405788022931
aF0.83203670236172467
aF0
aa(lp80
F0
aF0
aF0
aF0
aF0
aF0
aF0
aF0
aF0.88332002599433268
aF0.86027505349553757
aF0.75683250585507467
aF0.71889897593271801
aF1.0022760460629674
aF0.85576256470504852
aF0
aa(lp81
F0
aF0
aF0
aF0
aF0
aF0
aF0
aF0
aF0.81225722714543902
aF0.94464462725351994
aF0.93105801631989027
aF0.78860559363478644
aF0.71004962011959516
aF0.79578949246781594
aF0
aa(lp82
F0
aF0
aF0
aF0
aF0
aF0
aF0
aF0
aF-2.3240010411418353
aF0.92119410476856467
aF0.4154794649249437
aF0.79486508123544342
aF0.8263007361044834
aF-0.51353329693988203
aF0
aa(lp83
F0
aF0
aF0
aF0
aF0
aF0
aF0
aF0
aF0
aF0
aF0
aF0
aF0
aF0
aF-4.5297939832168073
aa(lp84
F0
aF0
aF0
aF0
aF0
aF0
aF0
aF0
aF0
aF0
aF0
aF0
aF0
aF0
aF0.44642328414660043
aa(lp85
F0
aF0
aF0
aF0
aF0
aF0
aF0
aF0
aF0
aF0
aF0
aF0
aF0
aF0
aF-1.2227476044968844
aa(lp86
F0
aF0
aF0
aF0
aF0
aF0
aF0
aF0
aF0
aF0
aF0
aF0
aF0
aF0
aF-0.074895605002550353
aa(lp87
F0
aF0
aF0
aF0
aF0
aF0
aF0
aF0
aF0
aF0
aF0
aF0
aF0
aF0
aF-0.085677645839228406
aa(lp88
F0
aF0
aF0
aF0
aF0
aF0
aF0
aF0
aF0
aF0
aF0
aF0
aF0
aF0
aF-2.7216651461169907
aa(lp89
F0
aF0
aF0
aF0
aF0
aF0
aF0
aF0
aF0
aF0
aF0
aF0
aF0
aF0
aF0
aasS'NumNeurons'
p90
I15
sS'NumLayers'
p91
I3
sbsS'testDataOutputValues'
p92
(lp93
F0.00038341915212298117
aF0.0024146500621343319
aF0.034666921116803577
aF0.0083387748624524274
aF0.0055981313859593349
aF0.037087270085533114
aF0.013615303780577615
aF0.0052228714133243518
aF0.013558314091787406
aF0.16484164714276747
aF0.031729616501124602
aF0.0047831476943529013
aF0.018000084207715022
aF0.0043079222020367307
aF0.07714961991926024
aF0.01147694477468706
aF0.0033166753199644038
aF0.0085425986401201429
aF4.3349533768290263e-05
aF0.019512958022703197
aF0.022121715525411298
aF0.016551051300934455
aF0.0039887176609986735
aF0.0217462998432441
aF0.018402749058019613
aF0.073900740529621686
aF0.11050057749551308
aF0.0078018883953796369
aF0.00095954442131362038
aF0.062845675161514375
aF0.0086799344475326137
aF0.0011392332214882144
aF0.0081371310182357052
aF0.00014206937719176739
aF0.0060875261342878866
aF0.0011205480776225721
aF0.0067264029677987711
aF0.036656733228962277
aF0.011955751586244146
aF0.011387567503196404
aF0.010766753598260438
aF0.017752194632430832
aF0.0034577481561500032
aF0.051649225538157061
aF0.0018304278349847679
aF0.020127076417753978
aF0.013446203228593552
aF0.00026725984109157117
aF0.075074478983448448
aF0.012141202261948777
aF0.04190040743579037
aF0.062436314801324604
aF0.027171375655101148
aF0.083213416232257836
aF0.081988293632800566
aF0.038454868152642187
aF0.05575731012655074
aF0.17901604156971154
aF0.26136785467641815
aF0.035534846049362662
aF0.056124006074913975
aF0.018907870780520815
aF0.011522879086690098
aF0.031289581363088723
aF0.003560049318814395
aF0.036649103461883804
aF0.0036732501487337452
aF0.0772572152060199
aF0.1462723511690921
aF0.00013895518654749364
aF0.0063710735038680737
aF0.0029984050361196285
aF0.021014309332307562
aF0.011422913567008912
aF0.008548204183279836
aF0.011336339067098102
aF0.0049612793992053579
aF0.015109803870764577
aF0.00035072015035810704
aF0.0029778513778674219
aF0.0022183002797290605
aF0.00033421493994345634
aF0.025488467030935626
aF0.0092875130422304178
asS'learning_rate'
p94
F0.00024169921875000002
sS'testErrors'
p95
(lp96
F0.00013868015677012625
aF0.00028270955397559274
aF0.00090111111835731832
aF0.00048744649767612426
aF0.0002273752493990535
aF0.051642707712462793
aF0.0019548898705843815
aF2.3707013955031946e-05
aF0.0020329397796900696
aF0.095549772070334896
aF0.00015995382088874685
aF0.0010117536492590354
aF0.006028989888708083
aF0.00097048030345455068
aF0.053504490746655455
aF0.00063197349129471387
aF0.0018545911252220337
aF0.00042203873770405443
aF5.4591843462201626e-05
aF0.046146658365662084
aF0.00070715075172845176
aF2.9923726295336527e-05
aF0.0017013361889294497
aF0.00016172317565914073
aF1.6217405168609286e-06
aF0.0047785512584330404
aF0.063998245590232816
aF6.4609240861639841e-05
aF2.470490502760553e-05
aF0.012599013574636586
aF0.00070785041187594177
aF8.9587689461487893e-06
aF9.7400333163843159e-06
aF6.3687178713539764e-05
aF0.0009320046880977647
aF2.6690012707109372e-05
aF0.00025553075675831488
aF0.00088294165368455163
aF0.074246253472703097
aF1.525639641923531e-06
aF0.00014269637195059274
aF0.0037336105802211954
aF0.0068324157504951353
aF0.094751810725165489
aF1.5153607754141574e-05
aF7.6500972522240184e-07
aF0.0015141478681417917
aF0.00013684721933974792
aF0.013763483547657919
aF0.0006473487457557002
aF0.0071005069314274477
aF0.0070354866952612232
aF0.0094255843052460531
aF0.010121752779288114
aF0.051148826577636773
aF0.0073344885670472469
aF0.0059970807262962021
aF0.20834655585244935
aF0.72110798375050944
aF0.00034040607746903891
aF0.003681060400409704
aF0.00010236184789913455
aF0.036287172791262125
aF0.0029407747283811902
aF6.1777755810430668e-05
aF0.0014057794110575634
aF0.00087262026895676349
aF0.0094038651763999771
aF0.034529246823020658
aF2.729222149528607e-05
aF0.00041445011568356192
aF0.00017651045175697206
aF0.003945661545713023
aF1.204337188347792e-06
aF0.023832731777637627
aF0.0057031615221432661
aF8.1723310695857134e-05
aF0.0011814593310658197
aF8.8073260669192085e-06
aF0.00021691335208433909
aF0.00014056377457464102
aF1.2405221232234496e-05
aF0.00081361275972807289
aF0.00021399698438666212
asS'fileName'
p97
S''
sS'learningRates'
p98
(lp99
F0.40000000000000002
aF0.20000000000000001
aF0.22000000000000003
aF0.24200000000000005
aF0.26620000000000005
aF0.29282000000000008
aF0.32210200000000011
aF0.35431220000000013
aF0.38974342000000017
aF0.42871776200000022
aF0.47158953820000027
aF0.51874849202000028
aF0.57062334122200031
aF0.62768567534420039
aF0.69045424287862045
aF0.75949966716648254
aF0.83544963388313087
aF0.90000000000000002
aF0.90000000000000002
aF0.90000000000000002
aF0.90000000000000002
aF0.90000000000000002
aF0.90000000000000002
aF0.90000000000000002
aF0.90000000000000002
aF0.90000000000000002
aF0.90000000000000002
aF0.90000000000000002
aF0.90000000000000002
aF0.90000000000000002
aF0.90000000000000002
aF0.90000000000000002
aF0.45000000000000001
aF0.49500000000000005
aF0.24750000000000003
aF0.12375000000000001
aF0.061875000000000006
aF0.030937500000000003
aF0.015468750000000002
aF0.0077343750000000008
aF0.0038671875000000004
aF0.0019335937500000002
aF0.0009667968750000001
aF0.00048339843750000005
asS'netName'
p100
S'Network3'
p101
sS'validationErrors'
p102
(lp103
F0.041913126224653319
aF0.041854077763687707
aF0.041733707069807079
aF0.041594514017395855
aF0.041431385448509987
aF0.041236423543438122
aF0.040997690010308362
aF0.040696245554428759
aF0.04030025868523153
aF0.039752581946983535
aF0.038944023205659685
aF0.037666823125899904
aF0.035668928821405925
aF0.033428188505052664
aF0.03216567902133901
aF0.031547780018678369
aF0.031009419641446035
aF0.030434377313397678
aF0.029845922815965622
aF0.029239084694508751
aF0.028628261060692509
aF0.028031466296001714
aF0.027469989360042284
aF0.026965960521778142
aF0.026538338404049667
aF0.026198795664691171
aF0.02594932834490777
aF0.025782635643374015
aF0.025684863834787759
aF0.025639287948767495
aF0.025629518193673061
aF0.02564151831416275
aF0.025629845652692218
aF0.025655625947405773
aF0.025673673508062038
aF0.025697580560405265
aF0.025721228746501231
aF0.025742954470291551
aF0.02576252146612722
aF0.025780036131078155
aF0.025795641442179832
aF0.02580945766277291
aF0.025821585668437164
aF0.025832118909679243
asS'testDataPredictions'
p104
(lp105
F0.015437670160496556
aF0.023159817572812075
aF0.03166338919060184
aF0.017134826075791001
aF0.013760680463470282
aF0.047769212704577395
aF0.019205483950394019
aF0.019336747004702642
aF0.015373005916507688
aF0.090563093676490847
aF0.040493505887010506
aF0.014499067686060426
aF0.018001809114600368
aF0.012563603433162377
aF0.060949314094288352
aF0.016440718564377604
aF0.015496519081729124
aF0.016000573813669827
aF0.012323749533617636
aF0.034830488130952818
aF0.016778154878768044
aF0.018987723007751166
aF0.051317677314491716
aF0.021348216759736229
aF0.047748784963941082
aF0.031451077230988222
aF0.10486268705523211
aF0.015046635908756578
aF0.012380995392561704
aF0.029480616618093546
aF0.015279533882274227
aF0.010970804726491137
aF0.021798946155463354
aF0.012977828730801276
aF0.015647595073185416
aF0.014421149408043045
aF0.015052936755205765
aF0.024287973843905686
aF0.050571151570279152
aF0.020934665902111637
aF0.022523592315727287
aF0.021029514096076
aF0.019034595327472606
aF0.084855834069286387
aF0.011717802215162325
aF0.01918833154934212
aF0.048826764031138149
aF0.015453013567408091
aF0.039240960338281707
aF0.015180695915547333
aF0.023236483304276252
aF0.030595853798012954
aF0.026849124623562131
aF0.038042201766857589
aF0.060393430995613846
aF0.031812313662202468
aF0.049358807688747904
aF0.11786510355114299
aF0.15081922787282245
aF0.032765010412219568
aF0.03023060991853416
aF0.030224860235858284
aF0.029991902475774566
aF0.026247132207904485
aF0.015252768304152807
aF0.030780918755924994
aF0.013026853211050356
aF0.032448248787016611
aF0.047711815108017731
aF0.012270455291172535
aF0.017179534118682321
aF0.013065685651637935
aF0.025462589141568657
aF0.015864701489935261
aF0.023552990620683497
aF0.019521833157103843
aF0.018067261322007665
aF0.018860740003667352
aF0.01213835289571576
aF0.022593552141172053
aF0.011484027451461766
aF0.013141057504661971
aF0.028122357800143254
aF0.014320008489365437
asS'weightDecayFactor'
p106
F0.025000000000000001
sS'momentum'
p107
F0.90000000000000002
sS'trainingErrors'
p108
(lp109
F0.03080680777537018
aF0.030730230056638989
aF0.03064835590293474
aF0.030554226036923544
aF0.030444204254030539
aF0.030313035519892697
aF0.03015278788885788
aF0.029950910762762319
aF0.029686404288584559
aF0.029321836088530898
aF0.028786453078296564
aF0.027947504270845941
aF0.026644902926870835
aF0.025184281560514724
aF0.024409697365261839
aF0.02413558637453668
aF0.023958517804959521
aF0.023777751430573812
aF0.023581241131788468
aF0.023377375664990666
aF0.023167853392874176
aF0.022954518144043975
aF0.022739298098190124
aF0.022524048665159811
aF0.02231032651588102
aF0.022099191653653136
aF0.021891126298061416
aF0.021686112127623159
aF0.021483837869843071
aF0.021283956204044944
aF0.021086301139732689
aF0.020891010075220071
aF0.020690312397856288
aF0.020548563428474512
aF0.020398198486838034
aF0.020277751941012247
aF0.020172876876489484
aF0.020076504680725957
aF0.01998517619382801
aF0.019897222670080664
aF0.019811860621647023
aF0.019728740904681463
aF0.019647724127911353
aF0.019568768934334419
asb.