(dp1
S'training'
p2
(lp3
F0.03055441430846146
aF0.030365106192148359
aF0.030129899463757895
aF0.02981505140175738
aF0.029363225928748876
aF0.028649150614906266
aF0.027391442302597237
aF0.025418908445030409
aF0.024307280670879561
aF0.024069905860260581
aF0.023901764311201515
aF0.023725692772412141
aF0.023542019909033478
aF0.023353999329297995
aF0.023166421040574092
aF0.022985812819389974
aF0.022819877837983931
aF0.022675765353337703
aF0.022557059508181088
aF0.022466585773085645
aF0.022375786650630402
aF0.022321453770355985
aF0.022284984418020494
aF0.022257825073420882
aF0.022235793621675149
aF0.022216724628697757
aF0.022199423424501027
aF0.022183181595473306
aF0.022167545118437101
aF0.022152199673139753
asS'i'
(lp4
(i__main__
Neuron
p5
(dp6
S'activation'
p7
F0.028019080153244797
sS'delta'
p8
F0
sS'bias'
p9
F1
sS'S'
F0
sS'n'
I0
sba(i__main__
Neuron
p10
(dp11
g7
F0.00013577274726477636
sg8
F0
sg9
F1
sS'S'
F0
sS'n'
I1
sba(i__main__
Neuron
p12
(dp13
g7
F0.00037655014149546277
sg8
F0
sg9
F1
sS'S'
F0
sS'n'
I2
sba(i__main__
Neuron
p14
(dp15
g7
F2.9482946232328945e-06
sg8
F0
sg9
F1
sS'S'
F0
sS'n'
I3
sba(i__main__
Neuron
p16
(dp17
g7
F0.0065645669718731193
sg8
F0
sg9
F1
sS'S'
F0
sS'n'
I4
sba(i__main__
Neuron
p18
(dp19
g7
F0.00022195366702081482
sg8
F0
sg9
F1
sS'S'
F0
sS'n'
I5
sba(i__main__
Neuron
p20
(dp21
g7
F0.013152871495328162
sg8
F0
sg9
F1
sS'S'
F0
sS'n'
I6
sba(i__main__
Neuron
p22
(dp23
g7
F0.3382968503292943
sg8
F0
sg9
F1
sS'S'
F0
sS'n'
I7
sbasS'k'
(lp24
(i__main__
Neuron
p25
(dp26
g7
F0.020226453236279255
sg8
F-0.00021317261296504835
sg9
F1
sS'S'
F-3.8803301564061128
sS'n'
I13
sbasS'j'
(lp27
(i__main__
Neuron
p28
(dp29
g7
F0.6644380656382145
sg8
F0.00014569947998800337
sg9
F1
sS'S'
F0.68313512681287647
sS'n'
I8
sba(i__main__
Neuron
p30
(dp31
g7
F0.61703612027606181
sg8
F0.00016491226611388803
sg9
F1
sS'S'
F0.47698688804981482
sS'n'
I9
sba(i__main__
Neuron
p32
(dp33
g7
F0.8097638642736712
sg8
F-5.4983269817302837e-05
sg9
F1
sS'S'
F1.4484765594648401
sS'n'
I10
sba(i__main__
Neuron
p34
(dp35
g7
F0.67868933482136018
sg8
F0.00012375348206181201
sg9
F1
sS'S'
F0.74775503005408284
sS'n'
I11
sba(i__main__
Neuron
p36
(dp37
g7
F0.77295018125578618
sg8
F1.8053990892313804e-05
sg9
F1
sS'S'
F1.2250451387051955
sS'n'
I12
sbasS'weights'
p38
(lp39
(lp40
F0
aF0
aF0
aF0
aF0
aF0
aF0
aF0
aF-1.1918989368645081
aF-1.4576880315359777
aF2.0021995291254178
aF-0.67252645073986284
aF0.51604392221633411
aF0
aa(lp41
F0
aF0
aF0
aF0
aF0
aF0
aF0
aF0
aF0.83785471005847856
aF1.0393856326241619
aF0.93276173050650957
aF0.79877145159530782
aF0.64102721441858035
aF0
aa(lp42
F0
aF0
aF0
aF0
aF0
aF0
aF0
aF0
aF0.88316237313708568
aF0.68903798116187742
aF0.61492281145575056
aF0.68988695969496971
aF0.86046067929322057
aF0
aa(lp43
F0
aF0
aF0
aF0
aF0
aF0
aF0
aF0
aF0.71178749367118066
aF0.62847137100059403
aF1.0051667404920237
aF1.0236134659103089
aF0.79029774452616186
aF0
aa(lp44
F0
aF0
aF0
aF0
aF0
aF0
aF0
aF0
aF0.88387457060206553
aF0.82359036939850327
aF0.66087504684435494
aF0.73425377679621562
aF0.98778048353285552
aF0
aa(lp45
F0
aF0
aF0
aF0
aF0
aF0
aF0
aF0
aF0.88400654802588108
aF0.80194125782084613
aF0.87801430193266694
aF1.0244258436692735
aF0.60688129499266386
aF0
aa(lp46
F0
aF0
aF0
aF0
aF0
aF0
aF0
aF0
aF0.9108859517855713
aF0.67333552894596527
aF0.6614292469771158
aF0.85223433032224494
aF0.65534076207086445
aF0
aa(lp47
F0
aF0
aF0
aF0
aF0
aF0
aF0
aF0
aF-0.89227537366352616
aF-1.4690422368459415
aF1.1196595535846354
aF-0.73897407556228767
aF0.57623227116804943
aF0
aa(lp48
F0
aF0
aF0
aF0
aF0
aF0
aF0
aF0
aF0
aF0
aF0
aF0
aF0
aF-3.0654864350655164
aa(lp49
F0
aF0
aF0
aF0
aF0
aF0
aF0
aF0
aF0
aF0
aF0
aF0
aF0
aF-3.2738075732448513
aa(lp50
F0
aF0
aF0
aF0
aF0
aF0
aF0
aF0
aF0
aF0
aF0
aF0
aF0
aF1.6743557845635728
aa(lp51
F0
aF0
aF0
aF0
aF0
aF0
aF0
aF0
aF0
aF0
aF0
aF0
aF0
aF-2.6621336384871803
aa(lp52
F0
aF0
aF0
aF0
aF0
aF0
aF0
aF0
aF0
aF0
aF0
aF0
aF0
aF-0.48257980938275508
aa(lp53
F0
aF0
aF0
aF0
aF0
aF0
aF0
aF0
aF0
aF0
aF0
aF0
aF0
aF0
aasS'learning'
p54
(lp55
F0.40000000000000002
aF0.20000000000000001
aF0.22000000000000003
aF0.24200000000000005
aF0.26620000000000005
aF0.29282000000000008
aF0.32210200000000011
aF0.35431220000000013
aF0.38974342000000017
aF0.42871776200000022
aF0.47158953820000027
aF0.51874849202000028
aF0.57062334122200031
aF0.62768567534420039
aF0.69045424287862045
aF0.75949966716648254
aF0.83544963388313087
aF0.90000000000000002
aF0.90000000000000002
aF0.90000000000000002
aF0.45000000000000001
aF0.22500000000000001
aF0.1125
aF0.056250000000000001
aF0.028125000000000001
aF0.0140625
aF0.0070312500000000002
aF0.0035156250000000001
aF0.0017578125
aF0.00087890625000000002
asS'validation'
p56
(lp57
F0.043456951435923333
aF0.043235389092048215
aF0.042901507586543181
aF0.042456118531136018
aF0.041820696549812089
aF0.040824948319697942
aF0.039084955278164531
aF0.036307792009346709
aF0.034439545015624143
aF0.03365814943225421
aF0.032943776256867348
aF0.032178657827156745
aF0.031369786568267118
aF0.030543945730779343
aF0.029748370206141659
aF0.029052438680944617
aF0.028538072912376131
aF0.028272479613331628
aF0.028251040388241534
aF0.028411852331228397
aF0.028509822524976285
aF0.028637553411538768
aF0.028774839483451463
aF0.02891102304570653
aF0.029040328841153054
aF0.029159576562417525
aF0.029267077272736017
aF0.029362082112752326
aF0.029444467383035054
aF0.0295145259098945
asS'changes'
p58
(lp59
(lp60
F1
aF1
aF1
aF1
aF1
aF1
aF1
aF1
aF4.0007180999085531e-06
aF4.5282762024482992e-06
aF-1.5097690312165238e-06
aF3.3981095584703916e-06
aF4.9573909353973809e-07
aF1
aa(lp61
F1
aF1
aF1
aF1
aF1
aF1
aF1
aF1
aF1.9386378299560111e-08
aF2.1942779599383614e-08
aF-7.3159250047617513e-09
aF1.6466303238252148e-08
aF2.4022151436918422e-09
aF1
aa(lp62
F1
aF1
aF1
aF1
aF1
aF1
aF1
aF1
aF5.3765896609192051e-08
aF6.0855782396731508e-08
aF-2.0289878868996822e-08
aF4.5667403357312895e-08
aF6.6622681685573874e-09
aF1
aa(lp63
F1
aF1
aF1
aF1
aF1
aF1
aF1
aF1
aF4.2097369358732985e-10
aF4.7648574853895385e-10
aF-1.5886474119471511e-10
aF3.5756449125380501e-10
aF5.2163914590190344e-11
aF1
aa(lp64
F1
aF1
aF1
aF1
aF1
aF1
aF1
aF1
aF9.3732491426536872e-07
aF1.0609260630802202e-06
aF-3.5372252990728927e-07
aF7.9614026057731841e-07
aF1.1614629967573767e-07
aF1
aa(lp65
F1
aF1
aF1
aF1
aF1
aF1
aF1
aF1
aF3.1691763189035914e-08
aF3.5870824556676109e-08
aF-1.1959663593530347e-08
aF2.6918188367209525e-08
aF3.9270064932512524e-09
aF1
aa(lp66
F1
aF1
aF1
aF1
aF1
aF1
aF1
aF1
aF1.8780392064739787e-06
aF2.1256884473153435e-06
aF-7.0872412465394092e-07
aF1.5951593737252441e-06
aF2.3271258574073992e-07
aF1
aa(lp67
F1
aF1
aF1
aF1
aF1
aF1
aF1
aF1
aF4.8303881671066431e-05
aF5.4673514202854839e-05
aF-1.8228653659999316e-05
aF4.102810493481795e-05
aF5.9854560896486544e-06
aF1
aa(lp68
F1
aF1
aF1
aF1
aF1
aF1
aF1
aF1
aF1
aF1
aF1
aF1
aF1
aF-0.00013880719863342968
aa(lp69
F1
aF1
aF1
aF1
aF1
aF1
aF1
aF1
aF1
aF1
aF1
aF1
aF1
aF-0.00012890449801200265
aa(lp70
F1
aF1
aF1
aF1
aF1
aF1
aF1
aF1
aF1
aF1
aF1
aF1
aF1
aF-0.00016916708925525538
aa(lp71
F1
aF1
aF1
aF1
aF1
aF1
aF1
aF1
aF1
aF1
aF1
aF1
aF1
aF-0.00014178441931747232
aa(lp72
F1
aF1
aF1
aF1
aF1
aF1
aF1
aF1
aF1
aF1
aF1
aF1
aF1
aF-0.0001614763736335016
aa(lp73
F1
aF1
aF1
aF1
aF1
aF1
aF1
aF1
aF1
aF1
aF1
aF1
aF1
aF1
aas.