(dp1
S'training'
p2
(lp3
F0.031008390222582432
aF0.030882892514657662
aF0.030733584909048092
aF0.030546555417288953
aF0.030301508154962877
aF0.029959688538631467
aF0.029437472254596645
aF0.028528881132526822
aF0.02678204636185564
aF0.024791755875891809
aF0.024238279929821634
aF0.024013076172083737
aF0.023785596730496069
aF0.023541852171862679
aF0.023284326055781606
aF0.023017471382041313
aF0.022746969035995875
aF0.022477817091847988
aF0.022211097836818915
aF0.021941106745154117
aF0.021657419240274804
aF0.021356240603916495
aF0.021097916869018667
aF0.020886987541911657
aF0.020699819350785444
aF0.020524670600750517
aF0.020356087979205382
aF0.020191885374428613
aF0.020031518193471515
aF0.019875213189365838
aF0.019723505984700296
aF0.019576999380903841
asS'i'
(lp4
(i__main__
Neuron
p5
(dp6
S'activation'
p7
F0.028019080153244797
sS'delta'
p8
F0
sS'bias'
p9
F1
sS'S'
F0
sS'n'
I0
sba(i__main__
Neuron
p10
(dp11
g7
F0.00013577274726477636
sg8
F0
sg9
F1
sS'S'
F0
sS'n'
I1
sba(i__main__
Neuron
p12
(dp13
g7
F0.00037655014149546277
sg8
F0
sg9
F1
sS'S'
F0
sS'n'
I2
sba(i__main__
Neuron
p14
(dp15
g7
F2.9482946232328945e-06
sg8
F0
sg9
F1
sS'S'
F0
sS'n'
I3
sba(i__main__
Neuron
p16
(dp17
g7
F0.0065645669718731193
sg8
F0
sg9
F1
sS'S'
F0
sS'n'
I4
sba(i__main__
Neuron
p18
(dp19
g7
F0.00022195366702081482
sg8
F0
sg9
F1
sS'S'
F0
sS'n'
I5
sba(i__main__
Neuron
p20
(dp21
g7
F0.013152871495328162
sg8
F0
sg9
F1
sS'S'
F0
sS'n'
I6
sba(i__main__
Neuron
p22
(dp23
g7
F0.3382968503292943
sg8
F0
sg9
F1
sS'S'
F0
sS'n'
I7
sbasS'k'
(lp24
(i__main__
Neuron
p25
(dp26
g7
F0.0186240623263077
sg8
F-0.00016731832590791669
sg9
F1
sS'S'
F-3.9645011868852258
sS'n'
I11
sbasS'j'
(lp27
(i__main__
Neuron
p28
(dp29
g7
F0.53278826810077762
sg8
F0.00018798956385610306
sg9
F1
sS'S'
F0.13134155736897446
sS'n'
I8
sba(i__main__
Neuron
p30
(dp31
g7
F0.69301549983418242
sg8
F0.00012248648253316253
sg9
F1
sS'S'
F0.81425510696946679
sS'n'
I9
sba(i__main__
Neuron
p32
(dp33
g7
F0.76533064912754534
sg8
F6.9221135406081609e-06
sg9
F1
sS'S'
F1.182130455726216
sS'n'
I10
sbasS'weights'
p34
(lp35
(lp36
F0
aF0
aF0
aF0
aF0
aF0
aF0
aF0
aF-4.3605410796177839
aF0.061052079719631662
aF0.57342924419950037
aF0
aa(lp37
F0
aF0
aF0
aF0
aF0
aF0
aF0
aF0
aF0.91428339254799063
aF0.76915883519856165
aF0.80439191004898536
aF0
aa(lp38
F0
aF0
aF0
aF0
aF0
aF0
aF0
aF0
aF0.5657622240320217
aF0.67433002582063584
aF0.96718036018755815
aF0
aa(lp39
F0
aF0
aF0
aF0
aF0
aF0
aF0
aF0
aF1.0131692840710769
aF0.7092928730877982
aF0.62067004458802044
aF0
aa(lp40
F0
aF0
aF0
aF0
aF0
aF0
aF0
aF0
aF0.65091315925686843
aF0.89266042512256827
aF0.78289793119613327
aF0
aa(lp41
F0
aF0
aF0
aF0
aF0
aF0
aF0
aF0
aF0.74438058912712779
aF0.69739233773787301
aF0.57843332068260722
aF0
aa(lp42
F0
aF0
aF0
aF0
aF0
aF0
aF0
aF0
aF0.82620343946355512
aF0.89014867265025677
aF0.78576083005982411
aF0
aa(lp43
F0
aF0
aF0
aF0
aF0
aF0
aF0
aF0
aF-2.252563015549816
aF-0.60690052756445645
aF0.44338176640882415
aF0
aa(lp44
F0
aF0
aF0
aF0
aF0
aF0
aF0
aF0
aF0
aF0
aF0
aF-4.5135871969840453
aa(lp45
F0
aF0
aF0
aF0
aF0
aF0
aF0
aF0
aF0
aF0
aF0
aF-3.4410046237036656
aa(lp46
F0
aF0
aF0
aF0
aF0
aF0
aF0
aF0
aF0
aF0
aF0
aF-0.23035080276729519
aa(lp47
F0
aF0
aF0
aF0
aF0
aF0
aF0
aF0
aF0
aF0
aF0
aF0
aasS'learning'
p48
(lp49
F0.29999999999999999
aF0.14999999999999999
aF0.16500000000000001
aF0.18150000000000002
aF0.19965000000000005
aF0.21961500000000006
aF0.24157650000000008
aF0.26573415000000011
aF0.29230756500000016
aF0.32153832150000022
aF0.35369215365000028
aF0.38906136901500032
aF0.4279675059165004
aF0.47076425650815046
aF0.5178406821589655
aF0.56962475037486215
aF0.62658722541234846
aF0.6892459479535834
aF0.7581705427489418
aF0.83398759702383607
aF0.90000000000000002
aF0.90000000000000002
aF0.45000000000000001
aF0.22500000000000001
aF0.1125
aF0.056250000000000001
aF0.028125000000000001
aF0.0140625
aF0.0070312500000000002
aF0.0035156250000000001
aF0.0017578125
aF0.00087890625000000002
asS'validation'
p50
(lp51
F0.044243931278482244
aF0.044106376932963438
aF0.043908616733843768
aF0.043659655436982366
aF0.043332850914236734
aF0.042876760403453291
aF0.04218074423260916
aF0.040970696756920437
aF0.038611786713276322
aF0.03567136657080007
aF0.034424877321399532
aF0.033557813072060121
aF0.032610291433814963
aF0.031570879822381513
aF0.030471498385670776
aF0.029377076094699639
aF0.028387924645468722
aF0.027616867433800995
aF0.027137298052894682
aF0.026936702364007682
aF0.026922114493698558
aF0.02697521160699181
aF0.027004027102544594
aF0.02704496591789831
aF0.027082875438824039
aF0.027113479256418844
aF0.027136420089810105
aF0.027152600027034367
aF0.027163243058774593
aF0.027169573312198141
aF0.02717270716204272
aF0.027173620987164599
asS'changes'
p52
(lp53
(lp54
F1
aF1
aF1
aF1
aF1
aF1
aF1
aF1
aF5.1882852377928174e-06
aF3.3804791932089142e-06
aF1.9104198531229877e-07
aF1
aa(lp55
F1
aF1
aF1
aF1
aF1
aF1
aF1
aF1
aF2.5141001648722464e-08
aF1.6380871342781626e-08
aF9.2573685670277197e-10
aF1
aa(lp56
F1
aF1
aF1
aF1
aF1
aF1
aF1
aF1
aF6.9725684416640648e-08
aF4.5430467794206722e-08
aF2.5674249906662066e-09
aF1
aa(lp57
F1
aF1
aF1
aF1
aF1
aF1
aF1
aF1
aF5.4593489103573287e-10
aF3.5570934430316442e-10
aF2.0102303681184916e-11
aF1
aa(lp58
F1
aF1
aF1
aF1
aF1
aF1
aF1
aF1
aF1.2155590307174078e-06
aF7.920096569720408e-07
aF4.4759067755368546e-08
aF1
aa(lp59
F1
aF1
aF1
aF1
aF1
aF1
aF1
aF1
aF4.1099098463613122e-08
aF2.6778529099335663e-08
aF1.5133426566143311e-09
aF1
aa(lp60
F1
aF1
aF1
aF1
aF1
aF1
aF1
aF1
aF2.4355135372241797e-06
aF1.5868832302033427e-06
aF8.967998482755483e-08
aF1
aa(lp61
F1
aF1
aF1
aF1
aF1
aF1
aF1
aF1
aF6.2642333187087947e-05
aF4.0815239380149757e-05
aF2.3066032702833578e-06
aF1
aa(lp62
F1
aF1
aF1
aF1
aF1
aF1
aF1
aF1
aF1
aF1
aF1
aF-8.78080624657704e-05
aa(lp63
F1
aF1
aF1
aF1
aF1
aF1
aF1
aF1
aF1
aF1
aF1
aF-0.00011421488036158611
aa(lp64
F1
aF1
aF1
aF1
aF1
aF1
aF1
aF1
aF1
aF1
aF1
aF-0.00012613303533336946
aa(lp65
F1
aF1
aF1
aF1
aF1
aF1
aF1
aF1
aF1
aF1
aF1
aF1
aas.