(i__main__
NN
p1
(dp2
S'exitCounter'
p3
I11
sS'Network'
p4
(i__main__
Layers
p5
(dp6
S'layers'
p7
(lp8
(i__main__
Layer
p9
(dp10
S'Neurons'
p11
(lp12
(i__main__
Neuron
p13
(dp14
S'activation'
p15
F0.028944592026554937
sS'delta'
p16
F0
sS'bias'
p17
F1
sS'S'
F0
sS'n'
I0
sba(i__main__
Neuron
p18
(dp19
g15
F9.4920926943959096e-05
sg16
F0
sg17
F1
sS'S'
F0
sS'n'
I1
sba(i__main__
Neuron
p20
(dp21
g15
F0.00029454138026114337
sg16
F0
sg17
F1
sS'S'
F0
sS'n'
I2
sba(i__main__
Neuron
p22
(dp23
g15
F2.4103936172777011e-05
sg16
F0
sg17
F1
sS'S'
F0
sS'n'
I3
sba(i__main__
Neuron
p24
(dp25
g15
F0.0092628250224269376
sg16
F0
sg17
F1
sS'S'
F0
sS'n'
I4
sba(i__main__
Neuron
p26
(dp27
g15
F0.00010395211749965074
sg16
F0
sg17
F1
sS'S'
F0
sS'n'
I5
sba(i__main__
Neuron
p28
(dp29
g15
F0.011237230130119525
sg16
F0
sg17
F1
sS'S'
F0
sS'n'
I6
sba(i__main__
Neuron
p30
(dp31
g15
F0.25286829054946947
sg16
F0
sg17
F1
sS'S'
F0
sS'n'
I7
sbasS'name'
p32
S'Input'
p33
sba(i__main__
Layer
p34
(dp35
g11
(lp36
(i__main__
Neuron
p37
(dp38
g15
F0.57928840660815151
sg16
F0.00018798956385610306
sg17
F1
sS'S'
F0.31985291754062661
sS'n'
I8
sba(i__main__
Neuron
p39
(dp40
g15
F0.70410728754600149
sg16
F0.00012248648253316253
sg17
F1
sS'S'
F0.86693381093454658
sS'n'
I9
sba(i__main__
Neuron
p41
(dp42
g15
F0.75863909237907312
sg16
F6.9221135406081609e-06
sg17
F1
sS'S'
F1.1452328049073952
sS'n'
I10
sbasg32
S'Hidden'
p43
sba(i__main__
Layer
p44
(dp45
g11
(lp46
(i__main__
Neuron
p47
(dp48
g15
F0.014596660183729725
sg16
F-0.00016731832590791669
sg17
F1
sS'S'
F-4.2122582913972497
sS'n'
I11
sbasg32
S'Output'
p49
sbasS'changes'
p50
(lp51
(lp52
F1
aF1
aF1
aF1
aF1
aF1
aF1
aF1
aF5.1882852377928174e-06
aF3.3804791932089142e-06
aF1.9104198531229877e-07
aF1
aa(lp53
F1
aF1
aF1
aF1
aF1
aF1
aF1
aF1
aF2.5141001648722464e-08
aF1.6380871342781626e-08
aF9.2573685670277197e-10
aF1
aa(lp54
F1
aF1
aF1
aF1
aF1
aF1
aF1
aF1
aF6.9725684416640648e-08
aF4.5430467794206722e-08
aF2.5674249906662066e-09
aF1
aa(lp55
F1
aF1
aF1
aF1
aF1
aF1
aF1
aF1
aF5.4593489103573287e-10
aF3.5570934430316442e-10
aF2.0102303681184916e-11
aF1
aa(lp56
F1
aF1
aF1
aF1
aF1
aF1
aF1
aF1
aF1.2155590307174078e-06
aF7.920096569720408e-07
aF4.4759067755368546e-08
aF1
aa(lp57
F1
aF1
aF1
aF1
aF1
aF1
aF1
aF1
aF4.1099098463613122e-08
aF2.6778529099335663e-08
aF1.5133426566143311e-09
aF1
aa(lp58
F1
aF1
aF1
aF1
aF1
aF1
aF1
aF1
aF2.4355135372241797e-06
aF1.5868832302033427e-06
aF8.967998482755483e-08
aF1
aa(lp59
F1
aF1
aF1
aF1
aF1
aF1
aF1
aF1
aF6.2642333187087947e-05
aF4.0815239380149757e-05
aF2.3066032702833578e-06
aF1
aa(lp60
F1
aF1
aF1
aF1
aF1
aF1
aF1
aF1
aF1
aF1
aF1
aF-8.78080624657704e-05
aa(lp61
F1
aF1
aF1
aF1
aF1
aF1
aF1
aF1
aF1
aF1
aF1
aF-0.00011421488036158611
aa(lp62
F1
aF1
aF1
aF1
aF1
aF1
aF1
aF1
aF1
aF1
aF1
aF-0.00012613303533336946
aa(lp63
F1
aF1
aF1
aF1
aF1
aF1
aF1
aF1
aF1
aF1
aF1
aF1
aasS'weights'
p64
(lp65
(lp66
F0
aF0
aF0
aF0
aF0
aF0
aF0
aF0
aF-4.3605410796177839
aF0.061052079719631662
aF0.57342924419950037
aF0
aa(lp67
F0
aF0
aF0
aF0
aF0
aF0
aF0
aF0
aF0.91428339254799063
aF0.76915883519856165
aF0.80439191004898536
aF0
aa(lp68
F0
aF0
aF0
aF0
aF0
aF0
aF0
aF0
aF0.5657622240320217
aF0.67433002582063584
aF0.96718036018755815
aF0
aa(lp69
F0
aF0
aF0
aF0
aF0
aF0
aF0
aF0
aF1.0131692840710769
aF0.7092928730877982
aF0.62067004458802044
aF0
aa(lp70
F0
aF0
aF0
aF0
aF0
aF0
aF0
aF0
aF0.65091315925686843
aF0.89266042512256827
aF0.78289793119613327
aF0
aa(lp71
F0
aF0
aF0
aF0
aF0
aF0
aF0
aF0
aF0.74438058912712779
aF0.69739233773787301
aF0.57843332068260722
aF0
aa(lp72
F0
aF0
aF0
aF0
aF0
aF0
aF0
aF0
aF0.82620343946355512
aF0.89014867265025677
aF0.78576083005982411
aF0
aa(lp73
F0
aF0
aF0
aF0
aF0
aF0
aF0
aF0
aF-2.252563015549816
aF-0.60690052756445645
aF0.44338176640882415
aF0
aa(lp74
F0
aF0
aF0
aF0
aF0
aF0
aF0
aF0
aF0
aF0
aF0
aF-4.5135871969840453
aa(lp75
F0
aF0
aF0
aF0
aF0
aF0
aF0
aF0
aF0
aF0
aF0
aF-3.4410046237036656
aa(lp76
F0
aF0
aF0
aF0
aF0
aF0
aF0
aF0
aF0
aF0
aF0
aF-0.23035080276729519
aa(lp77
F0
aF0
aF0
aF0
aF0
aF0
aF0
aF0
aF0
aF0
aF0
aF0
aasS'NumNeurons'
p78
I12
sS'NumLayers'
p79
I3
sbsS'testDataOutputValues'
p80
(lp81
F0.00095537539264658046
aF0.062841764385705573
aF0.00867579763630698
aF0.0011350649426684451
aF0.0081329919418735141
aF0.00013789693717449177
aF0.0060833785048571287
aF0.0011163797208290831
aF0.0067222580044220444
aF0.036652713165837757
aF0.011951628445111133
aF0.011383441991012532
aF0.01076262549539973
aF0.017748095680045223
aF0.0034535895525692833
aF0.05164526803919587
aF0.0018262624405428452
aF0.020122987375828134
aF0.013442086307164244
aF0.00026308792349821731
aF0.07507061923884005
aF0.012137079894707531
aF0.041896409254690722
aF0.062432402317241557
aF0.027167316009267622
aF0.083209590451702148
aF0.081984462739767977
aF0.03845085559319382
aF0.055753369770761604
aF0.17901261557666112
aF0.26136477234019134
aF0.035530821304566064
aF0.056120067249359085
aF0.018903776650809764
aF0.011518754139165912
aF0.031285538902663015
aF0.0035558911421397906
aF0.036645083366920017
aF0.0036690924444499253
aF0.077253364570041519
aF0.14626878853554512
aF0.00013478273353459809
aF0.0063669270576898118
aF0.002994244515684967
aF0.021010223992833844
aF0.011418788202325326
aF0.0085440668223394772
aF0.011332213341136283
aF0.0049571270699099472
aF0.015105693891595443
aF0.00034654858104736773
aF0.0029736907716616688
aF0.0022141365038916023
aF0.0003300433017559313
aF0.025484400362269084
aF0.009283378766450235
asS'learning_rate'
p82
F0.00043945312500000001
sS'testErrors'
p83
(lp84
F2.2497784456215255e-05
aF0.01248497915214474
aF0.00069278658489419572
aF1.0115973756630216e-05
aF1.5040962137319328e-05
aF6.8441685812099253e-05
aF0.00091459624594010427
aF2.3489364343309617e-05
aF0.00024568179664599985
aF0.00084002234146027938
aF0.07414224702702292
aF3.7094990104027055e-06
aF0.00016367755284033106
aF0.0036852543590308725
aF0.0067960607169518968
aF0.093090824494229174
aF1.3625416202296144e-05
aF2.1462897471545838e-06
aF0.0018062807666230239
aF0.00014707470701891132
aF0.013521399699874058
aF0.00063300054085264478
aF0.0070364085393137951
aF0.0069088612869166316
aF0.0093335237524236996
aF0.0099023169716776441
aF0.050505239216100291
aF0.0071945276211080609
aF0.0056511593625502808
aF0.20350310024269952
aF0.69831614943893583
aF0.00029140221290751341
aF0.0035723992309332989
aF0.00013252385157860519
aF0.036278913954200451
aF0.0028653899287206142
aF5.6409537624581005e-05
aF0.0013247593930701871
aF0.00086189164581068406
aF0.0092542319188449775
aF0.034179511286766114
aF2.5027626040226284e-05
aF0.00039859219841460801
aF0.00017039590864647368
aF0.0038696615195773338
aF4.8282627037499383e-07
aF0.023822550645859669
aF0.0056623176126562582
aF9.2182766043350748e-05
aF0.0011529762406255349
aF7.5373276709420002e-06
aF0.00024322201379126701
aF0.0001365592638012901
aF1.0600853957890612e-05
aF0.00075874185062721662
aF0.00020586314816635769
asS'fileName'
p85
S''
sS'learningRates'
p86
(lp87
F0.29999999999999999
aF0.14999999999999999
aF0.16500000000000001
aF0.18150000000000002
aF0.19965000000000005
aF0.21961500000000006
aF0.24157650000000008
aF0.26573415000000011
aF0.29230756500000016
aF0.32153832150000022
aF0.35369215365000028
aF0.38906136901500032
aF0.4279675059165004
aF0.47076425650815046
aF0.5178406821589655
aF0.56962475037486215
aF0.62658722541234846
aF0.6892459479535834
aF0.7581705427489418
aF0.83398759702383607
aF0.90000000000000002
aF0.90000000000000002
aF0.45000000000000001
aF0.22500000000000001
aF0.1125
aF0.056250000000000001
aF0.028125000000000001
aF0.0140625
aF0.0070312500000000002
aF0.0035156250000000001
aF0.0017578125
aF0.00087890625000000002
asS'netName'
p88
S'Network6'
p89
sS'validationErrors'
p90
(lp91
F0.044243931278482244
aF0.044106376932963438
aF0.043908616733843768
aF0.043659655436982366
aF0.043332850914236734
aF0.042876760403453291
aF0.04218074423260916
aF0.040970696756920437
aF0.038611786713276322
aF0.03567136657080007
aF0.034424877321399532
aF0.033557813072060121
aF0.032610291433814963
aF0.031570879822381513
aF0.030471498385670776
aF0.029377076094699639
aF0.028387924645468722
aF0.027616867433800995
aF0.027137298052894682
aF0.026936702364007682
aF0.026922114493698558
aF0.02697521160699181
aF0.027004027102544594
aF0.02704496591789831
aF0.027082875438824039
aF0.027113479256418844
aF0.027136420089810105
aF0.027152600027034367
aF0.027163243058774593
aF0.027169573312198141
aF0.02717270716204272
aF0.027173620987164599
asS'testDataPredictions'
p92
(lp93
F0.012604114725908205
aF0.029986159233168594
aF0.015560154581368123
aF0.01115410657729422
aF0.022552216352243994
aF0.013266200871749678
aF0.015930074223073638
aF0.014736713135992759
aF0.015359982762440097
aF0.025015221392876298
aF0.050759243893292789
aF0.021621413189686266
aF0.023367557588955631
aF0.021422665912276727
aF0.019251051210629571
aF0.087563230426996874
aF0.011915195694709687
aF0.01977460869415637
aF0.052410941338254344
aF0.015878120706998466
aF0.04027376101182633
aF0.015460239473219006
aF0.023613961537162598
aF0.031350406394517825
aF0.027320753431628
aF0.039135143195180792
aF0.061817809775623622
aF0.032629698161362825
aF0.051621791134398395
aF0.12320009708312689
aF0.1643468725368547
aF0.034140640944285747
aF0.031129008203534123
aF0.031615268325866384
aF0.030010328419516792
aF0.026942868367599366
aF0.015597946094488314
aF0.031873511285138566
aF0.013205013369162402
aF0.033219225569408498
aF0.048652069292046941
aF0.012487789197780094
aF0.01756879172690174
aF0.013293767806146594
aF0.026066682065578748
aF0.016263165202266002
aF0.023582538194992324
aF0.019788963052041194
aF0.018624217000361654
aF0.019273648176375897
aF0.012356537449222596
aF0.023457010122488259
aF0.011650053844229704
aF0.013403163405055152
aF0.029097050084597832
aF0.014596660183729725
asS'weightDecayFactor'
p94
F0.014999999999999999
sS'momentum'
p95
F0.80000000000000004
sS'trainingErrors'
p96
(lp97
F0.031008390222582432
aF0.030882892514657662
aF0.030733584909048092
aF0.030546555417288953
aF0.030301508154962877
aF0.029959688538631467
aF0.029437472254596645
aF0.028528881132526822
aF0.02678204636185564
aF0.024791755875891809
aF0.024238279929821634
aF0.024013076172083737
aF0.023785596730496069
aF0.023541852171862679
aF0.023284326055781606
aF0.023017471382041313
aF0.022746969035995875
aF0.022477817091847988
aF0.022211097836818915
aF0.021941106745154117
aF0.021657419240274804
aF0.021356240603916495
aF0.021097916869018667
aF0.020886987541911657
aF0.020699819350785444
aF0.020524670600750517
aF0.020356087979205382
aF0.020191885374428613
aF0.020031518193471515
aF0.019875213189365838
aF0.019723505984700296
aF0.019576999380903841
asb.