(dp1
S'training'
p2
(lp3
F0.031051025548367559
aF0.030995942003778788
aF0.030941771383182926
aF0.030882790004980093
aF0.03081802222201235
aF0.030746216182645038
aF0.030665728083173412
aF0.030574352211013532
aF0.030469053095382958
aF0.030345526782170507
aF0.030197449081647464
aF0.03001511740602255
aF0.029782839972659059
aF0.029473547940312712
aF0.029036834400336907
aF0.028389650260899377
aF0.027395883534304704
aF0.025963262199962353
aF0.024691843451807974
aF0.024243464108258252
aF0.024100850272906156
aF0.023987208863699296
aF0.023871418398844092
aF0.023753344982181061
aF0.023634178853454414
aF0.023514893247253216
aF0.023396444316419743
aF0.023279859481103466
aF0.023166237425749074
aF0.023056707946543749
aF0.022952369455435342
aF0.022854213754948692
aF0.022763048308522115
aF0.022679428248675974
aF0.022603610450850471
aF0.022535538768154256
aF0.022425016802356507
aF0.022388261134150617
aF0.022320080128071351
aF0.022275324307414867
aF0.022242634487816298
aF0.022216434192217735
aF0.022193924242349106
aF0.022173667221576678
aF0.022154898657326866
aF0.022137188704618182
aF0.022120275562553707
aF0.022103983387412901
asS'i'
(lp4
(i__main__
Neuron
p5
(dp6
S'activation'
p7
F0.044620138464782744
sS'delta'
p8
F0
sS'bias'
p9
F1
sS'S'
F0
sS'n'
I0
sba(i__main__
Neuron
p10
(dp11
g7
F0.00024678740740889139
sg8
F0
sg9
F1
sS'S'
F0
sS'n'
I1
sba(i__main__
Neuron
p12
(dp13
g7
F0.00035526954238568998
sg8
F0
sg9
F1
sS'S'
F0
sS'n'
I2
sba(i__main__
Neuron
p14
(dp15
g7
F1.5951031693452621e-05
sg8
F0
sg9
F1
sS'S'
F0
sS'n'
I3
sba(i__main__
Neuron
p16
(dp17
g7
F0.010593790762303964
sg8
F0
sg9
F1
sS'S'
F0
sS'n'
I4
sba(i__main__
Neuron
p18
(dp19
g7
F0.00013868325896511293
sg8
F0
sg9
F1
sS'S'
F0
sS'n'
I5
sba(i__main__
Neuron
p20
(dp21
g7
F0.014929296296045703
sg8
F0
sg9
F1
sS'S'
F0
sS'n'
I6
sba(i__main__
Neuron
p22
(dp23
g7
F0.39915260711108336
sg8
F0
sg9
F1
sS'S'
F0
sS'n'
I7
sbasS'k'
(lp24
(i__main__
Neuron
p25
(dp26
g7
F0.024204334440284369
sg8
F-0.00038060489966145676
sg9
F1
sS'S'
F-3.6967214792095771
sS'n'
I16
sbasS'j'
(lp27
(i__main__
Neuron
p28
(dp29
g7
F0.78852627892641702
sg8
F3.3846136564494204e-05
sg9
F1
sS'S'
F1.3160649930685573
sS'n'
I8
sba(i__main__
Neuron
p30
(dp31
g7
F0.61925591201231078
sg8
F0.00027526271409353487
sg9
F1
sS'S'
F0.48639115100293939
sS'n'
I9
sba(i__main__
Neuron
p32
(dp33
g7
F0.81548746905647407
sg8
F-1.0621641287856121e-05
sg9
F1
sS'S'
F1.4860686764118267
sS'n'
I10
sba(i__main__
Neuron
p34
(dp35
g7
F0.72330581604003541
sg8
F0.00014944972630189003
sg9
F1
sS'S'
F0.96091924752883895
sS'n'
I11
sba(i__main__
Neuron
p36
(dp37
g7
F0.83343212637540576
sg8
F-6.3906702717148069e-05
sg9
F1
sS'S'
F1.6101493910609588
sS'n'
I12
sba(i__main__
Neuron
p38
(dp39
g7
F0.6974052404992529
sg8
F0.00019433654253577456
sg9
F1
sS'S'
F0.834972165586362
sS'n'
I13
sba(i__main__
Neuron
p40
(dp41
g7
F0.83636890899506056
sg8
F-8.6597962424766399e-05
sg9
F1
sS'S'
F1.6314553455218386
sS'n'
I14
sba(i__main__
Neuron
p42
(dp43
g7
F0.64567609643584067
sg8
F0.00024492749471208633
sg9
F1
sS'S'
F0.60008650272137687
sS'n'
I15
sbasS'weights'
p44
(lp45
(lp46
F0
aF0
aF0
aF0
aF0
aF0
aF0
aF0
aF0.37698793939807512
aF-1.6145764881869815
aF0.78321468386427673
aF-0.50725660877892098
aF1.6455471856488502
aF-0.37399503898670572
aF1.905608655455489
aF-0.87034973689406914
aF0
aa(lp47
F0
aF0
aF0
aF0
aF0
aF0
aF0
aF0
aF1.119087767459493
aF0.93328657394217474
aF0.90755738614251846
aF0.93820485349178717
aF1.1480989329436726
aF0.66525665101103493
aF0.95321746085505421
aF0.85291748707335358
aF0
aa(lp48
F0
aF0
aF0
aF0
aF0
aF0
aF0
aF0
aF1.0020237230474527
aF0.8759090151358
aF0.84673257342970976
aF0.6665643409857458
aF1.0631525302458849
aF1.1302208155287172
aF0.84162135553469708
aF0.93664026933248612
aF0
aa(lp49
F0
aF0
aF0
aF0
aF0
aF0
aF0
aF0
aF0.83492760580491365
aF0.65254240416590603
aF1.0573858983116349
aF0.68201095524502231
aF1.1028606299439963
aF0.90004515003009433
aF0.69994052028138565
aF0.97644197970764213
aF0
aa(lp50
F0
aF0
aF0
aF0
aF0
aF0
aF0
aF0
aF0.94005260495851706
aF0.76302281953182471
aF0.88862162860112281
aF0.69342842339590272
aF0.93603897396148783
aF0.99636717023992938
aF0.87509713753211094
aF0.57437578853817783
aF0
aa(lp51
F0
aF0
aF0
aF0
aF0
aF0
aF0
aF0
aF0.72727198251662128
aF0.94222707079763246
aF0.65668397273877488
aF1.0441863752868237
aF1.0905939100584592
aF1.1140369035301112
aF0.76524118280389952
aF0.77521550939872308
aF0
aa(lp52
F0
aF0
aF0
aF0
aF0
aF0
aF0
aF0
aF1.1302207912221993
aF1.1103556526739251
aF1.0748547682788563
aF1.0430830331651701
aF1.0774410186522625
aF0.88253700245553202
aF0.71329360813267151
aF0.9553701423690325
aF0
aa(lp53
F0
aF0
aF0
aF0
aF0
aF0
aF0
aF0
aF0.68057336307707561
aF-1.1700344459645444
aF1.0648354347242468
aF-0.10033798241000276
aF1.2774900708804044
aF-0.43312692031218525
aF1.3174963815707084
aF-0.95751002305330823
aF0
aa(lp54
F0
aF0
aF0
aF0
aF0
aF0
aF0
aF0
aF0
aF0
aF0
aF0
aF0
aF0
aF0
aF0
aF-0.53328841460031984
aa(lp55
F0
aF0
aF0
aF0
aF0
aF0
aF0
aF0
aF0
aF0
aF0
aF0
aF0
aF0
aF0
aF0
aF-3.0673948415354526
aa(lp56
F0
aF0
aF0
aF0
aF0
aF0
aF0
aF0
aF0
aF0
aF0
aF0
aF0
aF0
aF0
aF0
aF0.18547018175178312
aa(lp57
F0
aF0
aF0
aF0
aF0
aF0
aF0
aF0
aF0
aF0
aF0
aF0
aF0
aF0
aF0
aF0
aF-1.9619989087496457
aa(lp58
F0
aF0
aF0
aF0
aF0
aF0
aF0
aF0
aF0
aF0
aF0
aF0
aF0
aF0
aF0
aF0
aF1.2095130454584573
aa(lp59
F0
aF0
aF0
aF0
aF0
aF0
aF0
aF0
aF0
aF0
aF0
aF0
aF0
aF0
aF0
aF0
aF-2.419543799033923
aa(lp60
F0
aF0
aF0
aF0
aF0
aF0
aF0
aF0
aF0
aF0
aF0
aF0
aF0
aF0
aF0
aF0
aF1.6625303898545845
aa(lp61
F0
aF0
aF0
aF0
aF0
aF0
aF0
aF0
aF0
aF0
aF0
aF0
aF0
aF0
aF0
aF0
aF-2.8128592719612429
aa(lp62
F0
aF0
aF0
aF0
aF0
aF0
aF0
aF0
aF0
aF0
aF0
aF0
aF0
aF0
aF0
aF0
aF0
aasS'learning'
p63
(lp64
F0.5
aF0.25
aF0.27500000000000002
aF0.30250000000000005
aF0.3327500000000001
aF0.36602500000000016
aF0.40262750000000019
aF0.44289025000000026
aF0.48717927500000036
aF0.53589720250000039
aF0.58948692275000047
aF0.64843561502500058
aF0.71327917652750072
aF0.78460709418025087
aF0.86306780359827606
aF0.90000000000000002
aF0.90000000000000002
aF0.90000000000000002
aF0.90000000000000002
aF0.90000000000000002
aF0.90000000000000002
aF0.90000000000000002
aF0.90000000000000002
aF0.90000000000000002
aF0.90000000000000002
aF0.90000000000000002
aF0.90000000000000002
aF0.90000000000000002
aF0.90000000000000002
aF0.90000000000000002
aF0.90000000000000002
aF0.90000000000000002
aF0.90000000000000002
aF0.90000000000000002
aF0.90000000000000002
aF0.90000000000000002
aF0.45000000000000001
aF0.49500000000000005
aF0.24750000000000003
aF0.12375000000000001
aF0.061875000000000006
aF0.030937500000000003
aF0.015468750000000002
aF0.0077343750000000008
aF0.0038671875000000004
aF0.0019335937500000002
aF0.0009667968750000001
aF0.00048339843750000005
asS'validation'
p65
(lp66
F0.042148778964802812
aF0.042131436452041246
aF0.042045628781853188
aF0.041951855228670384
aF0.041848641520422232
aF0.041734013713320785
aF0.041605398723505653
aF0.041459368935038536
aF0.041291241273338476
aF0.041094423022613999
aF0.040859295235674019
aF0.04057120327267736
aF0.040206608680527965
aF0.039725175643682338
aF0.039052251264278366
aF0.03808270619554998
aF0.036619080026188661
aF0.034510086826893487
aF0.032570075464058108
aF0.031709679152870013
aF0.031282308328767661
aF0.030908892886690943
aF0.030534297746882145
aF0.030155801136765865
aF0.029776845324458779
aF0.029402237912498401
aF0.029037789245672178
aF0.028690274076715521
aF0.02836725331947591
aF0.028076679679150226
aF0.027826276270934199
aF0.027622732247184992
aF0.027470830048573504
aF0.027372681999149613
aF0.027327272531653537
aF0.027330449949681819
aF0.027274546875725905
aF0.027336040173758062
aF0.027336955550219855
aF0.027366651609035484
aF0.027412287106310711
aF0.027466755179027216
aF0.027526027084188137
aF0.02758767950721229
aF0.027650121143596874
aF0.027712210911294152
aF0.027773076037280246
aF0.027832025606794528
asS'changes'
p67
(lp68
(lp69
F1
aF1
aF1
aF1
aF1
aF1
aF1
aF1
aF1.4649127210055072e-06
aF1.1913792604534066e-05
aF-4.5972093183777163e-07
aF6.4684134566807903e-06
aF-2.7659801463448488e-06
aF8.4111837336120002e-06
aF-3.748092681936296e-06
aF1.0600837766049067e-05
aF1
aa(lp70
F1
aF1
aF1
aF1
aF1
aF1
aF1
aF1
aF8.1022162847520436e-09
aF6.5893430420454031e-08
aF-2.5426486963815333e-09
aF3.5775841177251492e-08
aF-1.5298228395227256e-08
aF4.6521017152295199e-08
aF-2.0730148034689674e-08
aF5.8631670780456223e-08
aF1
aa(lp71
F1
aF1
aF1
aF1
aF1
aF1
aF1
aF1
aF1.1663766405327683e-08
aF9.4858684717697562e-08
aF-3.660339270529947e-09
aF5.1502087796750919e-08
aF-2.202298187880854e-08
aF6.6970598899436754e-08
aF-2.9842649927714538e-08
aF8.4404820595115319e-08
aF1
aa(lp72
F1
aF1
aF1
aF1
aF1
aF1
aF1
aF1
aF5.2368437312993752e-10
aF4.2590025482358093e-09
aF-1.6434335271450558e-10
aF2.3123610011946895e-09
aF-9.8879650525132516e-10
aF3.0068722987086192e-09
aF-1.3398870379290922e-09
aF3.7896408438279249e-09
aF1
aa(lp73
F1
aF1
aF1
aF1
aF1
aF1
aF1
aF1
aF3.478021222103186e-07
aF2.8285933298376823e-06
aF-1.0914774199512266e-07
aF1.5357419560280437e-06
aF-6.5670380978740188e-07
aF1.9969978490207725e-06
aF-8.8987867353874099e-07
aF2.5168693119876986e-06
aF1
aa(lp74
F1
aF1
aF1
aF1
aF1
aF1
aF1
aF1
aF4.5530757464780573e-09
aF3.702910035421133e-08
aF-1.4288525144775374e-09
aF2.0104389842140555e-08
aF-8.59690610845287e-09
aF2.6142688303227301e-08
aF-1.1649397019340847e-08
aF3.2948322881527618e-08
aF1
aa(lp75
F1
aF1
aF1
aF1
aF1
aF1
aF1
aF1
aF4.9014003121032752e-07
aF3.986194259417415e-06
aF-1.5381642103861501e-07
aF2.1642438679641356e-06
aF-9.2545963716258415e-07
aF2.8142685899256971e-06
aF-1.2540612404829748e-06
aF3.5468972854167568e-06
aF1
aa(lp76
F1
aF1
aF1
aF1
aF1
aF1
aF1
aF1
aF1.3104480440844958e-05
aF0.00010657567507177997
aF-4.1124661374911015e-06
aF5.7863650448874136e-05
aF-2.474327119137993e-05
aF7.5242839481805111e-05
aF-3.3528828398182545e-05
aF9.4830544625489874e-05
aF1
aa(lp77
F1
aF1
aF1
aF1
aF1
aF1
aF1
aF1
aF1
aF1
aF1
aF1
aF1
aF1
aF1
aF1
aF-0.00029111345631307447
aa(lp78
F1
aF1
aF1
aF1
aF1
aF1
aF1
aF1
aF1
aF1
aF1
aF1
aF1
aF1
aF1
aF1
aF-0.00022862107922852316
aa(lp79
F1
aF1
aF1
aF1
aF1
aF1
aF1
aF1
aF1
aF1
aF1
aF1
aF1
aF1
aF1
aF1
aF-0.00030106717054535222
aa(lp80
F1
aF1
aF1
aF1
aF1
aF1
aF1
aF1
aF1
aF1
aF1
aF1
aF1
aF1
aF1
aF1
aF-0.00026703492541231181
aa(lp81
F1
aF1
aF1
aF1
aF1
aF1
aF1
aF1
aF1
aF1
aF1
aF1
aF1
aF1
aF1
aF1
aF-0.00030769210030873352
aa(lp82
F1
aF1
aF1
aF1
aF1
aF1
aF1
aF1
aF1
aF1
aF1
aF1
aF1
aF1
aF1
aF1
aF-0.00025747277603608453
aa(lp83
F1
aF1
aF1
aF1
aF1
aF1
aF1
aF1
aF1
aF1
aF1
aF1
aF1
aF1
aF1
aF1
aF-0.00030877632154738629
aa(lp84
F1
aF1
aF1
aF1
aF1
aF1
aF1
aF1
aF1
aF1
aF1
aF1
aF1
aF1
aF1
aF1
aF-0.00023837506132083131
aa(lp85
F1
aF1
aF1
aF1
aF1
aF1
aF1
aF1
aF1
aF1
aF1
aF1
aF1
aF1
aF1
aF1
aF1
aas.