(dp1
S'training'
p2
(lp3
F0.030786077734484971
aF0.030677779688727209
aF0.0305568638247419
aF0.030411480018689679
aF0.030230895983387501
aF0.029996751065392173
aF0.029674782283805833
aF0.029193488778062781
aF0.028383373646129188
aF0.026849350962138432
aF0.024750761546676891
aF0.024039500039474363
aF0.023829418763900913
aF0.023623970841404284
aF0.023405343353048707
aF0.023178272956530386
aF0.022953597970697855
aF0.022740109343334432
aF0.022539644594840529
aF0.022350390370846462
aF0.02216685803305431
aF0.02198119613260675
aF0.021784426862933449
aF0.021633108218973088
aF0.021468285574399427
aF0.021325494235829454
aF0.021175025862366807
aF0.021035376922165894
aF0.02088858472927848
aF0.020735196375668549
aF0.020575957976214965
aF0.020411789098101627
aF0.020243753846395273
aF0.020073031789550545
aF0.019900889407532794
aF0.019728651575010879
aF0.01955767231408069
aF0.019389304343605553
aF0.019224867554068492
aF0.019065617226680067
aF0.018912713411328622
aF0.018767193242770257
aF0.018629948026945297
aF0.018501706654442136
aF0.018383026349498465
aF0.018274291050375247
aF0.018174653067418868
aF0.018080191749689948
aF0.017997910320658946
aF0.017926280857633474
aF0.017822776727024377
aF0.017759310892992181
aF0.017716456552151004
aF0.017684496404735101
aF0.017658573536201618
aF0.017636242566038948
aF0.017616252746200531
aF0.017597946353914252
aF0.017580961500514868
aF0.017565085186221921
asS'i'
(lp4
(i__main__
Neuron
p5
(dp6
S'activation'
p7
F0.028019080153244797
sS'delta'
p8
F0
sS'bias'
p9
F1
sS'S'
F0
sS'n'
I0
sba(i__main__
Neuron
p10
(dp11
g7
F0.00013577274726477636
sg8
F0
sg9
F1
sS'S'
F0
sS'n'
I1
sba(i__main__
Neuron
p12
(dp13
g7
F0.00037655014149546277
sg8
F0
sg9
F1
sS'S'
F0
sS'n'
I2
sba(i__main__
Neuron
p14
(dp15
g7
F2.9482946232328945e-06
sg8
F0
sg9
F1
sS'S'
F0
sS'n'
I3
sba(i__main__
Neuron
p16
(dp17
g7
F0.0065645669718731193
sg8
F0
sg9
F1
sS'S'
F0
sS'n'
I4
sba(i__main__
Neuron
p18
(dp19
g7
F0.00022195366702081482
sg8
F0
sg9
F1
sS'S'
F0
sS'n'
I5
sba(i__main__
Neuron
p20
(dp21
g7
F0.013152871495328162
sg8
F0
sg9
F1
sS'S'
F0
sS'n'
I6
sba(i__main__
Neuron
p22
(dp23
g7
F0.3382968503292943
sg8
F0
sg9
F1
sS'S'
F0
sS'n'
I7
sbasS'k'
(lp24
(i__main__
Neuron
p25
(dp26
g7
F0.01382809358000313
sg8
F-5.9436486161411277e-05
sg9
F1
sS'S'
F-4.2671283972227467
sS'n'
I15
sbasS'j'
(lp27
(i__main__
Neuron
p28
(dp29
g7
F0.72566208997188919
sg8
F1.4601004558421079e-05
sg9
F1
sS'S'
F0.97272387082370171
sS'n'
I8
sba(i__main__
Neuron
p30
(dp31
g7
F0.77895535999028775
sg8
F-1.0543438161315331e-06
sg9
F1
sS'S'
F1.2595890678656372
sS'n'
I9
sba(i__main__
Neuron
p32
(dp33
g7
F0.73255249299706815
sg8
F1.8617396004859806e-05
sg9
F1
sS'S'
F1.0076116895419023
sS'n'
I10
sba(i__main__
Neuron
p34
(dp35
g7
F0.80522419499454212
sg8
F-8.448513951841163e-06
sg9
F1
sS'S'
F1.4192715625322374
sS'n'
I11
sba(i__main__
Neuron
p36
(dp37
g7
F0.78471520517142035
sg8
F-1.653529688867418e-07
sg9
F1
sS'S'
F1.2933590773032355
sS'n'
I12
sba(i__main__
Neuron
p38
(dp39
g7
F0.66749284650236063
sg8
F3.3019628602756805e-05
sg9
F1
sS'S'
F0.69686729922348789
sS'n'
I13
sba(i__main__
Neuron
p40
(dp41
g7
F0.49752480987048325
sg8
F7.0333082207680569e-05
sg9
F1
sS'S'
F-0.0099008413961418906
sS'n'
I14
sbasS'weights'
p42
(lp43
(lp44
F0
aF0
aF0
aF0
aF0
aF0
aF0
aF0
aF0.26557920209807573
aF0.65373084561066275
aF0.32403850547735819
aF1.4461128078129171
aF0.5546899164615321
aF0.2531026052943004
aF-7.152218632585253
aF0
aa(lp45
F0
aF0
aF0
aF0
aF0
aF0
aF0
aF0
aF0.78653921759018053
aF0.58523249689908052
aF1.0408712022476194
aF0.8020185481296177
aF0.72680455756787354
aF0.66577535595099757
aF0.61493921969292509
aF0
aa(lp46
F0
aF0
aF0
aF0
aF0
aF0
aF0
aF0
aF0.7723824096868509
aF0.67571237399806539
aF0.79520594275171519
aF0.63341295308408774
aF0.90417116285916654
aF0.56262100627064771
aF1.0457753547013451
aF0
aa(lp47
F0
aF0
aF0
aF0
aF0
aF0
aF0
aF0
aF0.82838649222092353
aF0.90051360886463239
aF0.81069292473024224
aF0.84636956375201278
aF0.84338352413270623
aF0.92689782219285599
aF0.79356732132743624
aF0
aa(lp48
F0
aF0
aF0
aF0
aF0
aF0
aF0
aF0
aF0.68872825265099569
aF0.7019389063570094
aF0.72281037064198717
aF0.79177540940760072
aF0.95825679761112736
aF0.72651347982998182
aF0.24673229837368676
aF0
aa(lp49
F0
aF0
aF0
aF0
aF0
aF0
aF0
aF0
aF0.97831109342107014
aF0.78025196925058782
aF0.78162170043605017
aF0.77243419782898781
aF1.0424404193730847
aF0.8051475117104826
aF1.0172396398122974
aF0
aa(lp50
F0
aF0
aF0
aF0
aF0
aF0
aF0
aF0
aF0.65925313809563657
aF0.57179856084074365
aF1.0078513861546099
aF0.82239712024314737
aF0.8023103740899854
aF0.93553287608810132
aF0.57075289980393418
aF0
aa(lp51
F0
aF0
aF0
aF0
aF0
aF0
aF0
aF0
aF-0.14332504652545575
aF0.67583116573805069
aF-0.059223843959578824
aF1.0706741694630917
aF0.76944436205846756
aF-0.96861827374614218
aF-2.4218914063890171
aF0
aa(lp52
F0
aF0
aF0
aF0
aF0
aF0
aF0
aF0
aF0
aF0
aF0
aF0
aF0
aF0
aF0
aF-1.2339834901251563
aa(lp53
F0
aF0
aF0
aF0
aF0
aF0
aF0
aF0
aF0
aF0
aF0
aF0
aF0
aF0
aF0
aF0.10302356413805899
aa(lp54
F0
aF0
aF0
aF0
aF0
aF0
aF0
aF0
aF0
aF0
aF0
aF0
aF0
aF0
aF0
aF-1.5987792591929566
aa(lp55
F0
aF0
aF0
aF0
aF0
aF0
aF0
aF0
aF0
aF0
aF0
aF0
aF0
aF0
aF0
aF0.90630708567113794
aa(lp56
F0
aF0
aF0
aF0
aF0
aF0
aF0
aF0
aF0
aF0
aF0
aF0
aF0
aF0
aF0
aF0.016467718907830081
aa(lp57
F0
aF0
aF0
aF0
aF0
aF0
aF0
aF0
aF0
aF0
aF0
aF0
aF0
aF0
aF0
aF-2.5030610885871409
aa(lp58
F0
aF0
aF0
aF0
aF0
aF0
aF0
aF0
aF0
aF0
aF0
aF0
aF0
aF0
aF0
aF-4.7334430679527877
aa(lp59
F0
aF0
aF0
aF0
aF0
aF0
aF0
aF0
aF0
aF0
aF0
aF0
aF0
aF0
aF0
aF0
aasS'learning'
p60
(lp61
F0.5
aF0.25
aF0.27500000000000002
aF0.30250000000000005
aF0.3327500000000001
aF0.36602500000000016
aF0.40262750000000019
aF0.44289025000000026
aF0.48717927500000036
aF0.53589720250000039
aF0.58948692275000047
aF0.64843561502500058
aF0.71327917652750072
aF0.78460709418025087
aF0.86306780359827606
aF0.90000000000000002
aF0.90000000000000002
aF0.90000000000000002
aF0.90000000000000002
aF0.90000000000000002
aF0.90000000000000002
aF0.90000000000000002
aF0.45000000000000001
aF0.49500000000000005
aF0.24750000000000003
aF0.27225000000000005
aF0.13612500000000002
aF0.14973750000000005
aF0.16471125000000006
aF0.18118237500000009
aF0.19930061250000011
aF0.21923067375000013
aF0.24115374112500015
aF0.26526911523750019
aF0.29179602676125022
aF0.32097562943737529
aF0.35307319238111284
aF0.38838051161922416
aF0.42721856278114662
aF0.46994041905926132
aF0.51693446096518747
aF0.56862790706170629
aF0.62549069776787702
aF0.68803976754466478
aF0.75684374429913137
aF0.83252811872904453
aF0.90000000000000002
aF0.90000000000000002
aF0.90000000000000002
aF0.90000000000000002
aF0.45000000000000001
aF0.22500000000000001
aF0.1125
aF0.056250000000000001
aF0.028125000000000001
aF0.0140625
aF0.0070312500000000002
aF0.0035156250000000001
aF0.0017578125
aF0.00087890625000000002
asS'validation'
p62
(lp63
F0.043632008613702852
aF0.043539435777859729
aF0.04335512179152063
aF0.043133111199698794
aF0.04285711088808962
aF0.042499373577424907
aF0.042008378656250317
aF0.041277163506162201
aF0.040053173923011547
aF0.037744787701579401
aF0.03448401327716439
aF0.032945845628841161
aF0.032074868781188356
aF0.031187180277326556
aF0.030266654301407354
aF0.029396045894404556
aF0.028645055608825274
aF0.028058881216062287
aF0.027665669416154167
aF0.027454381666298624
aF0.027380408175864932
aF0.027385335387096168
aF0.027333993372997138
aF0.027368990257895028
aF0.027356047937994284
aF0.027369683005260392
aF0.027365282864147616
aF0.027360557067599045
aF0.027346698798361418
aF0.027323734281186136
aF0.027292121102644545
aF0.027252554095940268
aF0.027205866319873089
aF0.027152978486926476
aF0.027094873050823292
aF0.02703257983326865
aF0.026967165547894714
aF0.026899722700639693
aF0.02683135534914351
aF0.026763160674823545
aF0.026696206520731763
aF0.026631506042299982
aF0.026569991360119113
aF0.02651248850738204
aF0.026459695966964479
aF0.026412168699684168
aF0.026374593799896765
aF0.026362852791052202
aF0.026357924671184092
aF0.026358098347865566
aF0.026558838937199566
aF0.026728983217554989
aF0.026839560404948819
aF0.02690310741765678
aF0.026937685777478303
aF0.026956351949534767
aF0.026966840126592364
aF0.026973348278790422
aF0.026978049889646361
aF0.026982031339331757
asS'changes'
p64
(lp65
(lp66
F1
aF1
aF1
aF1
aF1
aF1
aF1
aF1
aF3.9887904911428552e-07
aF-2.8803200295935737e-08
aF5.0860125313224469e-07
aF-2.3080159985263338e-07
aF-4.5172121365942459e-09
aF9.0205012993974203e-07
aF1.9214015611067134e-06
aF1
aa(lp67
F1
aF1
aF1
aF1
aF1
aF1
aF1
aF1
aF1.932858039179294e-09
aF-1.3957237756586132e-10
aF2.4645416274336853e-09
aF-1.1184010008076104e-09
aF-2.1889166182786522e-11
aF4.3710865468324088e-09
aF9.3105829000627491e-09
aF1
aa(lp68
F1
aF1
aF1
aF1
aF1
aF1
aF1
aF1
aF5.36056007413812e-09
aF-3.8708798032046513e-10
aF6.8351235224093478e-09
aF-3.1017568958923767e-09
aF-6.0707091735222541e-11
aF1.2122707176933312e-08
aF2.5821833755686281e-08
aF1
aa(lp69
F1
aF1
aF1
aF1
aF1
aF1
aF1
aF1
aF4.1971861652557053e-11
aF-3.0308032990359645e-12
aF5.3517329326232591e-11
aF-2.428599055205836e-11
aF-4.7532153737676747e-13
aF9.4917803633888613e-11
aF2.0217858190559423e-10
aF1
aa(lp70
F1
aF1
aF1
aF1
aF1
aF1
aF1
aF1
aF9.345304047337038e-08
aF-6.7482778275663344e-09
aF1.191597643428906e-07
aF-5.4074314758424095e-08
aF-1.058333872298692e-09
aF2.1134057426544493e-07
aF4.5016357277831241e-07
aF1
aa(lp71
F1
aF1
aF1
aF1
aF1
aF1
aF1
aF1
aF3.1597278413309618e-09
aF-2.2816508938383569e-10
aF4.0288943308158687e-09
aF-1.8282991861754704e-09
aF-3.5783180352261267e-11
aF7.1456069607460749e-09
aF1.5220418371149351e-08
aF1
aa(lp72
F1
aF1
aF1
aF1
aF1
aF1
aF1
aF1
aF1.8724400824312282e-07
aF-1.352095750733516e-08
aF2.3875041179881803e-07
aF-1.0834416287667756e-07
aF-2.1204946923598528e-09
aF4.2344535853963441e-07
aF9.0195494234427467e-07
aF1
aa(lp73
F1
aF1
aF1
aF1
aF1
aF1
aF1
aF1
aF4.8159870074135809e-06
aF-3.4776416235742958e-07
aF6.1407512690328275e-06
aF-2.7866530183741908e-06
aF-5.4539928852807979e-08
aF1.0891175446471812e-05
aF2.3198623680189423e-05
aF1
aa(lp74
F1
aF1
aF1
aF1
aF1
aF1
aF1
aF1
aF1
aF1
aF1
aF1
aF1
aF1
aF1
aF-4.2052534649263104e-05
aa(lp75
F1
aF1
aF1
aF1
aF1
aF1
aF1
aF1
aF1
aF1
aF1
aF1
aF1
aF1
aF1
aF-4.5140910237559383e-05
aa(lp76
F1
aF1
aF1
aF1
aF1
aF1
aF1
aF1
aF1
aF1
aF1
aF1
aF1
aF1
aF1
aF-4.2451837459714386e-05
aa(lp77
F1
aF1
aF1
aF1
aF1
aF1
aF1
aF1
aF1
aF1
aF1
aF1
aF1
aF1
aF1
aF-4.6663204304560971e-05
aa(lp78
F1
aF1
aF1
aF1
aF1
aF1
aF1
aF1
aF1
aF1
aF1
aF1
aF1
aF1
aF1
aF-4.5474696571999631e-05
aa(lp79
F1
aF1
aF1
aF1
aF1
aF1
aF1
aF1
aF1
aF1
aF1
aF1
aF1
aF1
aF1
aF-3.8681593600629111e-05
aa(lp80
F1
aF1
aF1
aF1
aF1
aF1
aF1
aF1
aF1
aF1
aF1
aF1
aF1
aF1
aF1
aF-2.8831848314905114e-05
aa(lp81
F1
aF1
aF1
aF1
aF1
aF1
aF1
aF1
aF1
aF1
aF1
aF1
aF1
aF1
aF1
aF1
aas.