(dp1
S'training'
p2
(lp3
F0.03080680777537018
aF0.030730230056638989
aF0.03064835590293474
aF0.030554226036923544
aF0.030444204254030539
aF0.030313035519892697
aF0.03015278788885788
aF0.029950910762762319
aF0.029686404288584559
aF0.029321836088530898
aF0.028786453078296564
aF0.027947504270845941
aF0.026644902926870835
aF0.025184281560514724
aF0.024409697365261839
aF0.02413558637453668
aF0.023958517804959521
aF0.023777751430573812
aF0.023581241131788468
aF0.023377375664990666
aF0.023167853392874176
aF0.022954518144043975
aF0.022739298098190124
aF0.022524048665159811
aF0.02231032651588102
aF0.022099191653653136
aF0.021891126298061416
aF0.021686112127623159
aF0.021483837869843071
aF0.021283956204044944
aF0.021086301139732689
aF0.020891010075220071
aF0.020690312397856288
aF0.020548563428474512
aF0.020398198486838034
aF0.020277751941012247
aF0.020172876876489484
aF0.020076504680725957
aF0.01998517619382801
aF0.019897222670080664
aF0.019811860621647023
aF0.019728740904681463
aF0.019647724127911353
aF0.019568768934334419
asS'i'
(lp4
(i__main__
Neuron
p5
(dp6
S'activation'
p7
F0.044620138464782744
sS'delta'
p8
F0
sS'bias'
p9
F1
sS'S'
F0
sS'n'
I0
sba(i__main__
Neuron
p10
(dp11
g7
F0.00024678740740889139
sg8
F0
sg9
F1
sS'S'
F0
sS'n'
I1
sba(i__main__
Neuron
p12
(dp13
g7
F0.00035526954238568998
sg8
F0
sg9
F1
sS'S'
F0
sS'n'
I2
sba(i__main__
Neuron
p14
(dp15
g7
F1.5951031693452621e-05
sg8
F0
sg9
F1
sS'S'
F0
sS'n'
I3
sba(i__main__
Neuron
p16
(dp17
g7
F0.010593790762303964
sg8
F0
sg9
F1
sS'S'
F0
sS'n'
I4
sba(i__main__
Neuron
p18
(dp19
g7
F0.00013868325896511293
sg8
F0
sg9
F1
sS'S'
F0
sS'n'
I5
sba(i__main__
Neuron
p20
(dp21
g7
F0.014929296296045703
sg8
F0
sg9
F1
sS'S'
F0
sS'n'
I6
sba(i__main__
Neuron
p22
(dp23
g7
F0.39915260711108336
sg8
F0
sg9
F1
sS'S'
F0
sS'n'
I7
sbasS'k'
(lp24
(i__main__
Neuron
p25
(dp26
g7
F0.023063058193296668
sg8
F-0.00033736861007144491
sg9
F1
sS'S'
F-3.7461899822737728
sS'n'
I14
sbasS'j'
(lp27
(i__main__
Neuron
p28
(dp29
g7
F0.47377954583783127
sg8
F0.000381001911756357
sg9
F1
sS'S'
F-0.1049781189739889
sS'n'
I8
sba(i__main__
Neuron
p30
(dp31
g7
F0.81008852301206824
sg8
F-2.31704890666285e-05
sg9
F1
sS'S'
F1.4505854763636519
sS'n'
I9
sba(i__main__
Neuron
p32
(dp33
g7
F0.7689522631445227
sg8
F7.3289640419202907e-05
sg9
F1
sS'S'
F1.2024045488177286
sS'n'
I10
sba(i__main__
Neuron
p34
(dp35
g7
F0.7991117251642561
sg8
F4.056234900108074e-06
sg9
F1
sS'S'
F1.3807518603044209
sS'n'
I11
sba(i__main__
Neuron
p36
(dp37
g7
F0.80142970508430422
sg8
F4.5999373122848077e-06
sg9
F1
sS'S'
F1.3952540960086428
sS'n'
I12
sba(i__main__
Neuron
p38
(dp39
g7
F0.69481264597857217
sg8
F0.00019470343421506374
sg9
F1
sS'S'
F0.82271637159405686
sS'n'
I13
sbasS'weights'
p40
(lp41
(lp42
F0
aF0
aF0
aF0
aF0
aF0
aF0
aF0
aF-4.414801996710966
aF1.2525778409586787
aF0.27469290499761029
aF0.94385747609904336
aF1.0106037528864553
aF0.1392052919346603
aF0
aa(lp43
F0
aF0
aF0
aF0
aF0
aF0
aF0
aF0
aF1.1007211362352085
aF0.95146201390796314
aF0.74436785344597178
aF1.0922896264341899
aF0.90386553078696419
aF0.99266246006765957
aF0
aa(lp44
F0
aF0
aF0
aF0
aF0
aF0
aF0
aF0
aF0.76421980620031427
aF0.7891029097123019
aF1.0668428582772498
aF1.128625108607999
aF0.83195074305434791
aF0.97505538858470675
aF0
aa(lp45
F0
aF0
aF0
aF0
aF0
aF0
aF0
aF0
aF1.0610904319637129
aF0.78842279120004477
aF0.98797747451574225
aF0.98642340471691359
aF0.65454568421014858
aF1.1087024130732834
aF0
aa(lp46
F0
aF0
aF0
aF0
aF0
aF0
aF0
aF0
aF0.63565829904726334
aF1.1567651922135189
aF0.91585577571618293
aF0.83104438183669982
aF0.8562405788022931
aF0.83203670236172467
aF0
aa(lp47
F0
aF0
aF0
aF0
aF0
aF0
aF0
aF0
aF0.88332002599433268
aF0.86027505349553757
aF0.75683250585507467
aF0.71889897593271801
aF1.0022760460629674
aF0.85576256470504852
aF0
aa(lp48
F0
aF0
aF0
aF0
aF0
aF0
aF0
aF0
aF0.81225722714543902
aF0.94464462725351994
aF0.93105801631989027
aF0.78860559363478644
aF0.71004962011959516
aF0.79578949246781594
aF0
aa(lp49
F0
aF0
aF0
aF0
aF0
aF0
aF0
aF0
aF-2.3240010411418353
aF0.92119410476856467
aF0.4154794649249437
aF0.79486508123544342
aF0.8263007361044834
aF-0.51353329693988203
aF0
aa(lp50
F0
aF0
aF0
aF0
aF0
aF0
aF0
aF0
aF0
aF0
aF0
aF0
aF0
aF0
aF-4.5297939832168073
aa(lp51
F0
aF0
aF0
aF0
aF0
aF0
aF0
aF0
aF0
aF0
aF0
aF0
aF0
aF0
aF0.44642328414660043
aa(lp52
F0
aF0
aF0
aF0
aF0
aF0
aF0
aF0
aF0
aF0
aF0
aF0
aF0
aF0
aF-1.2227476044968844
aa(lp53
F0
aF0
aF0
aF0
aF0
aF0
aF0
aF0
aF0
aF0
aF0
aF0
aF0
aF0
aF-0.074895605002550353
aa(lp54
F0
aF0
aF0
aF0
aF0
aF0
aF0
aF0
aF0
aF0
aF0
aF0
aF0
aF0
aF-0.085677645839228406
aa(lp55
F0
aF0
aF0
aF0
aF0
aF0
aF0
aF0
aF0
aF0
aF0
aF0
aF0
aF0
aF-2.7216651461169907
aa(lp56
F0
aF0
aF0
aF0
aF0
aF0
aF0
aF0
aF0
aF0
aF0
aF0
aF0
aF0
aF0
aasS'learning'
p57
(lp58
F0.40000000000000002
aF0.20000000000000001
aF0.22000000000000003
aF0.24200000000000005
aF0.26620000000000005
aF0.29282000000000008
aF0.32210200000000011
aF0.35431220000000013
aF0.38974342000000017
aF0.42871776200000022
aF0.47158953820000027
aF0.51874849202000028
aF0.57062334122200031
aF0.62768567534420039
aF0.69045424287862045
aF0.75949966716648254
aF0.83544963388313087
aF0.90000000000000002
aF0.90000000000000002
aF0.90000000000000002
aF0.90000000000000002
aF0.90000000000000002
aF0.90000000000000002
aF0.90000000000000002
aF0.90000000000000002
aF0.90000000000000002
aF0.90000000000000002
aF0.90000000000000002
aF0.90000000000000002
aF0.90000000000000002
aF0.90000000000000002
aF0.90000000000000002
aF0.45000000000000001
aF0.49500000000000005
aF0.24750000000000003
aF0.12375000000000001
aF0.061875000000000006
aF0.030937500000000003
aF0.015468750000000002
aF0.0077343750000000008
aF0.0038671875000000004
aF0.0019335937500000002
aF0.0009667968750000001
aF0.00048339843750000005
asS'validation'
p59
(lp60
F0.041913126224653319
aF0.041854077763687707
aF0.041733707069807079
aF0.041594514017395855
aF0.041431385448509987
aF0.041236423543438122
aF0.040997690010308362
aF0.040696245554428759
aF0.04030025868523153
aF0.039752581946983535
aF0.038944023205659685
aF0.037666823125899904
aF0.035668928821405925
aF0.033428188505052664
aF0.03216567902133901
aF0.031547780018678369
aF0.031009419641446035
aF0.030434377313397678
aF0.029845922815965622
aF0.029239084694508751
aF0.028628261060692509
aF0.028031466296001714
aF0.027469989360042284
aF0.026965960521778142
aF0.026538338404049667
aF0.026198795664691171
aF0.02594932834490777
aF0.025782635643374015
aF0.025684863834787759
aF0.025639287948767495
aF0.025629518193673061
aF0.02564151831416275
aF0.025629845652692218
aF0.025655625947405773
aF0.025673673508062038
aF0.025697580560405265
aF0.025721228746501231
aF0.025742954470291551
aF0.02576252146612722
aF0.025780036131078155
aF0.025795641442179832
aF0.02580945766277291
aF0.025821585668437164
aF0.025832118909679243
asS'changes'
p61
(lp62
(lp63
F1
aF1
aF1
aF1
aF1
aF1
aF1
aF1
aF1.6575349106467696e-05
aF-1.0080236696884558e-06
aF3.1884390559504973e-06
aF1.764650188162938e-07
aF2.0011859380838199e-07
aF8.4705018393887399e-06
aF1
aa(lp64
F1
aF1
aF1
aF1
aF1
aF1
aF1
aF1
aF9.167581216967801e-08
aF-5.5752303020205782e-09
aF1.7634786340260358e-08
aF9.7600200246815677e-10
aF1.106826438453637e-09
aF4.6849096849954638e-08
aF1
aa(lp65
F1
aF1
aF1
aF1
aF1
aF1
aF1
aF1
aF1.3197441546681014e-07
aF-8.0259748213648961e-09
aF2.5386637588008437e-08
aF1.4050302988510039e-09
aF1.5933621833398273e-09
aF6.7442894975145294e-08
aF1
aa(lp66
F1
aF1
aF1
aF1
aF1
aF1
aF1
aF1
aF5.9254392304493971e-09
aF-3.6035337531822392e-10
aF1.1398192427002406e-09
aF6.3083603161519703e-11
aF7.1539402209746478e-11
aF3.0280776337388354e-09
aF1
aa(lp67
F1
aF1
aF1
aF1
aF1
aF1
aF1
aF1
aF3.9353481698550289e-06
aF-2.3932673020631114e-07
aF7.5700473775439268e-07
aF4.1896631219137356e-08
aF4.7512504070908613e-08
aF2.0110812567069895e-06
aF1
aa(lp68
F1
aF1
aF1
aF1
aF1
aF1
aF1
aF1
aF5.1517622124452219e-08
aF-3.1330249621861691e-09
aF9.9099450271734172e-09
aF5.4846857819814156e-10
aF6.2198594006530761e-10
aF2.6327054118928401e-08
aF1
aa(lp69
F1
aF1
aF1
aF1
aF1
aF1
aF1
aF1
aF5.5458881692212495e-06
aF-3.3727111918498473e-07
aF1.0668086883177043e-06
aF5.9042814353322908e-08
aF6.6956981401377606e-08
aF2.8341156277729711e-06
aF1
aa(lp70
F1
aF1
aF1
aF1
aF1
aF1
aF1
aF1
aF0.00014827595873206039
aF-9.0173470910090292e-06
aF2.8522407271369708e-05
aF1.5785803170472749e-06
aF1.7901750464773799e-06
aF7.5773473795913399e-05
aF1
aa(lp71
F1
aF1
aF1
aF1
aF1
aF1
aF1
aF1
aF1
aF1
aF1
aF1
aF1
aF1
aF-0.00015584238818809983
aa(lp72
F1
aF1
aF1
aF1
aF1
aF1
aF1
aF1
aF1
aF1
aF1
aF1
aF1
aF1
aF-0.00026646597806732588
aa(lp73
F1
aF1
aF1
aF1
aF1
aF1
aF1
aF1
aF1
aF1
aF1
aF1
aF1
aF1
aF-0.00025293484732265059
aa(lp74
F1
aF1
aF1
aF1
aF1
aF1
aF1
aF1
aF1
aF1
aF1
aF1
aF1
aF1
aF-0.00026285533171019809
aa(lp75
F1
aF1
aF1
aF1
aF1
aF1
aF1
aF1
aF1
aF1
aF1
aF1
aF1
aF1
aF-0.00026361779503240325
aa(lp76
F1
aF1
aF1
aF1
aF1
aF1
aF1
aF1
aF1
aF1
aF1
aF1
aF1
aF1
aF-0.00022854777721800746
aa(lp77
F1
aF1
aF1
aF1
aF1
aF1
aF1
aF1
aF1
aF1
aF1
aF1
aF1
aF1
aF1
aas.