(i__main__
NN
p1
(dp2
S'exitCounter'
p3
I11
sS'Network'
p4
(i__main__
Layers
p5
(dp6
S'layers'
p7
(lp8
(i__main__
Layer
p9
(dp10
S'Neurons'
p11
(lp12
(i__main__
Neuron
p13
(dp14
S'activation'
p15
F0.028948644255788161
sS'delta'
p16
F0
sS'bias'
p17
F1
sS'S'
F0
sS'n'
I0
sba(i__main__
Neuron
p18
(dp19
g15
F9.909354630078996e-05
sg16
F0
sg17
F1
sS'S'
F0
sS'n'
I1
sba(i__main__
Neuron
p20
(dp21
g15
F0.00029871316659873577
sg16
F0
sg17
F1
sS'S'
F0
sS'n'
I2
sba(i__main__
Neuron
p22
(dp23
g15
F2.8276851050005433e-05
sg16
F0
sg17
F1
sS'S'
F0
sS'n'
I3
sba(i__main__
Neuron
p24
(dp25
g15
F0.009266959383978212
sg16
F0
sg17
F1
sS'S'
F0
sS'n'
I4
sba(i__main__
Neuron
p26
(dp27
g15
F0.00010812469916918375
sg16
F0
sg17
F1
sS'S'
F0
sS'n'
I5
sba(i__main__
Neuron
p28
(dp29
g15
F0.011241356252447755
sg16
F0
sg17
F1
sS'S'
F0
sS'n'
I6
sba(i__main__
Neuron
p30
(dp31
g15
F0.25287140834164618
sg16
F0
sg17
F1
sS'S'
F0
sS'n'
I7
sbasS'name'
p32
S'Input'
p33
sba(i__main__
Layer
p34
(dp35
g11
(lp36
(i__main__
Neuron
p37
(dp38
g15
F0.78177474316139794
sg16
F5.9896140845810841e-06
sg17
F1
sS'S'
F1.2760388292623148
sS'n'
I8
sba(i__main__
Neuron
p39
(dp40
g15
F0.58158580256111903
sg16
F0.00037493837646453593
sg17
F1
sS'S'
F0.32928667005083156
sS'n'
I9
sba(i__main__
Neuron
p41
(dp42
g15
F0.69279807643335445
sg16
F0.00022562139810152455
sg17
F1
sS'S'
F0.81323331786953645
sS'n'
I10
sba(i__main__
Neuron
p43
(dp44
g15
F0.73664719907549892
sg16
F7.8127419261508912e-05
sg17
F1
sS'S'
F1.0286144972783082
sS'n'
I11
sbasg32
S'Hidden'
p45
sba(i__main__
Layer
p46
(dp47
g11
(lp48
(i__main__
Neuron
p49
(dp50
g15
F0.015333959545900415
sg16
F-0.00036930672826171831
sg17
F1
sS'S'
F-4.1622325915219136
sS'n'
I12
sbasg32
S'Output'
p51
sbasS'changes'
p52
(lp53
(lp54
F1
aF1
aF1
aF1
aF1
aF1
aF1
aF1
aF2.6191226160852847e-07
aF1.6395206228136264e-05
aF9.8659128634297375e-06
aF3.4163351400377686e-06
aF1
aa(lp55
F1
aF1
aF1
aF1
aF1
aF1
aF1
aF1
aF1.4485981046872754e-09
aF9.0679468468466095e-08
aF5.4566909495575719e-08
aF1.8895245982153364e-08
aF1
aa(lp56
F1
aF1
aF1
aF1
aF1
aF1
aF1
aF1
aF2.0853689057980851e-09
aF1.3054010172080145e-07
aF7.8553282638829237e-08
aF2.7201166639034991e-08
aF1
aa(lp57
F1
aF1
aF1
aF1
aF1
aF1
aF1
aF1
aF9.3629713612809028e-11
aF5.8610408475559337e-09
aF3.5269161904017391e-09
aF1.2212886819526297e-09
aF1
aa(lp58
F1
aF1
aF1
aF1
aF1
aF1
aF1
aF1
aF6.218366399182078e-08
aF3.892578334842781e-06
aF2.3423821653263154e-06
aF8.1111222180611736e-07
aF1
aa(lp59
F1
aF1
aF1
aF1
aF1
aF1
aF1
aF1
aF8.1404601716918534e-10
aF5.0957722440006434e-08
aF3.0664112565364878e-08
aF1.0618265815365398e-08
aF1
aa(lp60
F1
aF1
aF1
aF1
aF1
aF1
aF1
aF1
aF8.7632308900325963e-08
aF5.4856147926974375e-06
aF3.3010013289260285e-06
aF1.1430596431804457e-06
aF1
aa(lp61
F1
aF1
aF1
aF1
aF1
aF1
aF1
aF1
aF2.3429546759008088e-06
aF0.00014666447786238003
aF8.8256221886825743e-05
aF3.0561067823390114e-05
aF1
aa(lp62
F1
aF1
aF1
aF1
aF1
aF1
aF1
aF1
aF1
aF1
aF1
aF1
aF-0.00029206708632255796
aa(lp63
F1
aF1
aF1
aF1
aF1
aF1
aF1
aF1
aF1
aF1
aF1
aF1
aF-0.00017561433761430515
aa(lp64
F1
aF1
aF1
aF1
aF1
aF1
aF1
aF1
aF1
aF1
aF1
aF1
aF-0.00024186525494075694
aa(lp65
F1
aF1
aF1
aF1
aF1
aF1
aF1
aF1
aF1
aF1
aF1
aF1
aF-0.0002674045530554298
aa(lp66
F1
aF1
aF1
aF1
aF1
aF1
aF1
aF1
aF1
aF1
aF1
aF1
aF1
aasS'weights'
p67
(lp68
(lp69
F0
aF0
aF0
aF0
aF0
aF0
aF0
aF0
aF0.52351196356722474
aF-4.2629444872179283
aF-0.31874152815698481
aF0.035243569864021239
aF0
aa(lp70
F0
aF0
aF0
aF0
aF0
aF0
aF0
aF0
aF0.72266731187004185
aF0.94592891154791625
aF0.93600535816831354
aF0.68743924615106766
aF0
aa(lp71
F0
aF0
aF0
aF0
aF0
aF0
aF0
aF0
aF1.011357326173473
aF0.9265200644491085
aF0.904512990964776
aF0.92693055976410177
aF0
aa(lp72
F0
aF0
aF0
aF0
aF0
aF0
aF0
aF0
aF1.0338726902244901
aF1.0749627353040607
aF0.97270981420387015
aF0.93726623837740197
aF0
aa(lp73
F0
aF0
aF0
aF0
aF0
aF0
aF0
aF0
aF0.64575723802222562
aF0.51438784647367308
aF0.79233231857835851
aF0.69181124924551607
aF0
aa(lp74
F0
aF0
aF0
aF0
aF0
aF0
aF0
aF0
aF0.75272870800071001
aF0.85474606181164692
aF1.083651319400379
aF0.91248096520521438
aF0
aa(lp75
F0
aF0
aF0
aF0
aF0
aF0
aF0
aF0
aF0.66316728758477539
aF1.035210136092849
aF0.67338778308898761
aF0.80530792102375737
aF0
aa(lp76
F0
aF0
aF0
aF0
aF0
aF0
aF0
aF0
aF0.97662453342672328
aF-2.2311900041929871
aF-0.76307348601361713
aF0.046111705487100134
aF0
aa(lp77
F0
aF0
aF0
aF0
aF0
aF0
aF0
aF0
aF0
aF0
aF0
aF0
aF-0.10412796416920622
aa(lp78
F0
aF0
aF0
aF0
aF0
aF0
aF0
aF0
aF0
aF0
aF0
aF0
aF-4.0645442625141719
aa(lp79
F0
aF0
aF0
aF0
aF0
aF0
aF0
aF0
aF0
aF0
aF0
aF0
aF-2.7559078729538342
aa(lp80
F0
aF0
aF0
aF0
aF0
aF0
aF0
aF0
aF0
aF0
aF0
aF0
aF-1.0963987508834412
aa(lp81
F0
aF0
aF0
aF0
aF0
aF0
aF0
aF0
aF0
aF0
aF0
aF0
aF0
aasS'NumNeurons'
p82
I13
sS'NumLayers'
p83
I3
sbsS'testDataOutputValues'
p84
(lp85
F0.00038341915212298117
aF0.0024146500621343319
aF0.034666921116803577
aF0.0083387748624524274
aF0.0055981313859593349
aF0.037087270085533114
aF0.013615303780577615
aF0.0052228714133243518
aF0.013558314091787406
aF0.16484164714276747
aF0.031729616501124602
aF0.0047831476943529013
aF0.018000084207715022
aF0.0043079222020367307
aF0.07714961991926024
aF0.01147694477468706
aF0.0033166753199644038
aF0.0085425986401201429
aF4.3349533768290263e-05
aF0.019512958022703197
aF0.022121715525411298
aF0.016551051300934455
aF0.0039887176609986735
aF0.0217462998432441
aF0.018402749058019613
aF0.073900740529621686
aF0.11050057749551308
aF0.0078018883953796369
aF0.00095954442131362038
aF0.062845675161514375
aF0.0086799344475326137
aF0.0011392332214882144
aF0.0081371310182357052
aF0.00014206937719176739
aF0.0060875261342878866
aF0.0011205480776225721
aF0.0067264029677987711
aF0.036656733228962277
aF0.011955751586244146
aF0.011387567503196404
aF0.010766753598260438
aF0.017752194632430832
aF0.0034577481561500032
aF0.051649225538157061
aF0.0018304278349847679
aF0.020127076417753978
aF0.013446203228593552
aF0.00026725984109157117
aF0.075074478983448448
aF0.012141202261948777
aF0.04190040743579037
aF0.062436314801324604
aF0.027171375655101148
aF0.083213416232257836
aF0.081988293632800566
aF0.038454868152642187
aF0.05575731012655074
aF0.17901604156971154
aF0.26136785467641815
aF0.035534846049362662
aF0.056124006074913975
aF0.018907870780520815
aF0.011522879086690098
aF0.031289581363088723
aF0.003560049318814395
aF0.036649103461883804
aF0.0036732501487337452
aF0.0772572152060199
aF0.1462723511690921
aF0.00013895518654749364
aF0.0063710735038680737
aF0.0029984050361196285
aF0.021014309332307562
aF0.011422913567008912
aF0.008548204183279836
aF0.011336339067098102
aF0.0049612793992053579
aF0.015109803870764577
aF0.00035072015035810704
aF0.0029778513778674219
aF0.0022183002797290605
aF0.00033421493994345634
aF0.025488467030935626
aF0.0092875130422304178
asS'learning_rate'
p86
F0.00043945312500000001
sS'testErrors'
p87
(lp88
F0.00016422005034661479
aF0.00031421905424966544
aF0.00087003539901114348
aF0.00044546440535363804
aF0.00019785369285939031
aF0.052057884720276761
aF0.0018764852335603742
aF1.5206211723207285e-05
aF0.0019469104412870952
aF0.096561945807130276
aF0.00016946228541306005
aF0.00094953705990538781
aF0.0058970605922177991
aF0.0009092118590052872
aF0.054148250829249761
aF0.00058367566933667243
aF0.0017722947666495013
aF0.00038244007140967841
aF7.0957833497341911e-05
aF0.046251384105375257
aF0.0006561791446383008
aF2.0271173183194642e-05
aF0.001716608854890654
aF0.00013960665761694033
aF1.8996718318946895e-06
aF0.0047220990109077838
aF0.0640451447386884
aF4.9293753407379991e-05
aF1.5609386050316164e-05
aF0.012518724367065375
aF0.0006563612381812764
aF1.6095650181329268e-05
aF1.6370211733112265e-05
aF8.1367785042731514e-05
aF0.0008728609683653671
aF1.7149712642083411e-05
aF0.00022447934736855981
aF0.00083749619816910707
aF0.074939582452038841
aF4.7285312853992028e-06
aF0.00016557234741505593
aF0.0036354882086709166
aF0.00669657453488818
aF0.09589663976591549
aF8.2680546721639292e-06
aF3.4272691768849438e-06
aF0.0015418720629095557
aF0.0001622254411938432
aF0.013781452668386027
aF0.00059798137650858237
aF0.00698438315539776
aF0.006966179042744396
aF0.0093245583429001563
aF0.010111981463993842
aF0.051768019203653884
aF0.0072754343490241255
aF0.0060424818810759107
aF0.20786390570654747
aF0.68617286611749517
aF0.0003212887538256771
aF0.0036232646069497207
aF0.00011675828817182289
aF0.036246939407158771
aF0.0028698128080986837
aF4.6880441230671281e-05
aF0.0013648741045420994
aF0.00081474299651794512
aF0.009348268844049509
aF0.034804562606889883
aF1.7631190291405915e-05
aF0.00037563178636592954
aF0.00015047673848586293
aF0.003863414241734176
aF5.4390974112141276e-09
aF0.023672805591472293
aF0.0055802733526244454
aF0.00010102002881245972
aF0.001118929642729228
aF3.7694050643192412e-06
aF0.00024518467649148389
aF0.00011773247033156948
aF6.2244306014034549e-06
aF0.00077654873662606609
aF0.00018535963974965119
asS'fileName'
p89
S''
sS'learningRates'
p90
(lp91
F0.29999999999999999
aF0.14999999999999999
aF0.16500000000000001
aF0.18150000000000002
aF0.19965000000000005
aF0.21961500000000006
aF0.24157650000000008
aF0.26573415000000011
aF0.29230756500000016
aF0.32153832150000022
aF0.35369215365000028
aF0.38906136901500032
aF0.4279675059165004
aF0.47076425650815046
aF0.5178406821589655
aF0.56962475037486215
aF0.62658722541234846
aF0.6892459479535834
aF0.7581705427489418
aF0.83398759702383607
aF0.90000000000000002
aF0.90000000000000002
aF0.90000000000000002
aF0.90000000000000002
aF0.90000000000000002
aF0.90000000000000002
aF0.90000000000000002
aF0.90000000000000002
aF0.90000000000000002
aF0.90000000000000002
aF0.90000000000000002
aF0.90000000000000002
aF0.90000000000000002
aF0.90000000000000002
aF0.90000000000000002
aF0.90000000000000002
aF0.90000000000000002
aF0.90000000000000002
aF0.90000000000000002
aF0.90000000000000002
aF0.45000000000000001
aF0.22500000000000001
aF0.1125
aF0.056250000000000001
aF0.028125000000000001
aF0.0140625
aF0.0070312500000000002
aF0.0035156250000000001
aF0.0017578125
aF0.00087890625000000002
asS'netName'
p92
S'Network5'
p93
sS'validationErrors'
p94
(lp95
F0.042328709272510298
aF0.042328487398212794
aF0.042270529494336968
aF0.042204985238581308
aF0.042133310635267707
aF0.042054501657440589
aF0.041967199869222552
aF0.041869660109067112
aF0.0417596027187397
aF0.04163398657260315
aF0.041488653944749453
aF0.041317754214699048
aF0.041112768402405339
aF0.040860776235810595
aF0.040541204641279631
aF0.040119358111647657
aF0.039532858023088285
aF0.038663212468774445
aF0.037292151854708112
aF0.035199999333029801
aF0.033018922992070772
aF0.031893760531667398
aF0.031335258245993286
aF0.030861790526522635
aF0.030374869810584106
aF0.029868415309853933
aF0.029349017451607121
aF0.02882553486177938
aF0.028308638839527767
aF0.027810840044120974
aF0.027345809735160292
aF0.026926966309759062
aF0.026565621148963128
aF0.026269202118625271
aF0.026040124787573237
aF0.025875673369662608
aF0.025768872033383766
aF0.025709987496325384
aF0.025688175628823182
aF0.025692876836499377
aF0.025697320306688781
aF0.025718783114504588
aF0.025745830506543943
aF0.025774467670625259
aF0.025803295230638297
aF0.025831742344431984
aF0.025859496381316658
aF0.025886332508929372
aF0.025912070208648788
aF0.025936565930771874
asS'testDataPredictions'
p96
(lp97
F0.016476253341729283
aF0.024072073601932583
aF0.032185539646909879
aF0.018106988917408015
aF0.01477360006236797
aF0.0468575618399533
aF0.020101203703003868
aF0.020306217611316173
aF0.016337331284724067
aF0.08893017466385135
aF0.040863988833442201
aF0.015492583687253848
aF0.018856058294806872
aF0.013562996172444228
aF0.059561924476204363
aF0.017420420942882632
aF0.016462851681540176
aF0.016988080185933136
aF0.013358767477763217
aF0.0345868713931997
aF0.017754467206905267
aF0.019955629385470696
aF0.051502399220642502
aF0.022249733359059793
aF0.047853595032745937
aF0.031860612670943096
aF0.1047700101795709
aF0.016063672239649489
aF0.013400526740727149
aF0.029838838792663986
aF0.016265444222215476
aF0.011989622914071135
aF0.022724055341543394
aF0.014017813371829431
aF0.01663212634215382
aF0.015446166025614917
aF0.016055631317412621
aF0.025062781417702618
aF0.049301859018556944
aF0.021874016675326239
aF0.023445525530392895
aF0.021837782263031704
aF0.019860422830271098
aF0.083001828828759963
aF0.012735143205730706
aF0.02016497172359509
aF0.049181389824326537
aF0.016491617092521827
aF0.039164402270078572
aF0.016170087248459229
aF0.023928367022419243
aF0.031010022873816444
aF0.027370820358498613
aF0.038090775336546395
aF0.059028629438769568
aF0.032157785658818709
aF0.04906622588113671
aF0.11839411006648719
aF0.17164448084322206
aF0.033290577973106736
aF0.030708793419100409
aF0.030912931933228006
aF0.030097535674829277
aF0.026905408833867762
aF0.016265721659831728
aF0.031330441128022329
aF0.014023296670532186
aF0.032735330991623499
aF0.046972474709644774
aF0.013295699971958619
aF0.018156359532793792
aF0.014084513217253493
aF0.026120720942562282
aF0.01688837422929277
aF0.02407183017836655
aF0.020339885049421601
aF0.019078038746757283
aF0.019782697181379951
aF0.013164571267873586
aF0.023523947599407055
aF0.012489527452894831
aF0.01416828128492717
aF0.02877963178372132
aF0.015333959545900415
asS'weightDecayFactor'
p98
F0.02
sS'momentum'
p99
F0.90000000000000002
sS'trainingErrors'
p100
(lp101
F0.031066208041392339
aF0.031022617685674041
aF0.030979578316083393
aF0.030933105898070242
aF0.030882547370376667
aF0.030827174079791311
aF0.030766068145424329
aF0.030698051544660813
aF0.030621584737658209
aF0.030534613449578949
aF0.030434329597642418
aF0.030316784677396125
aF0.030176238462122102
aF0.030004009481598603
aF0.029786337674531042
aF0.029500186444347487
aF0.029104612386644458
aF0.028523240920939073
aF0.02761944155171888
aF0.026265622941706781
aF0.024883234129733037
aF0.024226420864638935
aF0.023985654174791631
aF0.023823608754926052
aF0.023666043900201023
aF0.023503579471709328
aF0.023335841679512425
aF0.023163437567145544
aF0.022987082569741864
aF0.022807525950224186
aF0.022625513231209007
aF0.022441728215499186
aF0.02225673386602179
aF0.022070936530473408
aF0.021884590895615716
aF0.021697848598402805
aF0.021510836848165897
aF0.021323742673111951
aF0.021136878535521448
aF0.020950714576797411
aF0.020781439988413041
aF0.020651506191293911
aF0.020541483942986577
aF0.020441781664256867
aF0.020347682408382636
aF0.020256892813799759
aF0.02016832459481175
aF0.020081487281166505
aF0.019996185182097826
aF0.019912365999593909
asb.